L251 LINKER/LOCATER V4.66.93.0                                                          03/08/2024  18:54:18  PAGE 1


L251 LINKER/LOCATER V4.66.93.0, INVOKED BY:
D:\KEIL_80251\C251\BIN\L251.EXE .\Out_flie\board.obj, .\Out_flie\common.obj, ..\LIB\startup\STC32_FPMU_LARGE_V1.0.LIB, .
>> \Out_flie\adc.obj, .\Out_flie\delay.obj, .\Out_flie\eeprom.obj, .\Out_flie\exti.obj, .\Out_flie\fifo.obj, .\Out_flie\
>> gpio.obj, .\Out_flie\iic.obj, .\Out_flie\mdu16.obj, .\Out_flie\nvic.obj, .\Out_flie\pwm.obj, .\Out_flie\spi.obj, .\Ou
>> t_flie\tim.obj, .\Out_flie\uart.obj, .\Out_flie\isr.obj, .\Out_flie\main.obj, .\Out_flie\18TFT.obj, .\Out_flie\ABSOLU
>> TE_ENCODER.obj, .\Out_flie\AT24C02.obj, .\Out_flie\BLUETOOTH_CH9141.obj, ..\LIB\peripheral\CONFIG.LIB, .\Out_flie\DL1
>> A.obj, .\Out_flie\DL1B.obj, .\Out_flie\FONT.obj, .\Out_flie\FUNCTION.obj, .\Out_flie\ICM20602.obj, .\Out_flie\IMU963R
>> A.obj, .\Out_flie\IPS114_SPI.obj, .\Out_flie\IPS200_SPI.obj, .\Out_flie\MPU6050.obj, .\Out_flie\OLED.obj, .\Out_flie\
>> TSL1401.obj, .\Out_flie\VIRSCO.obj, .\Out_flie\WIRELESS.obj, .\Out_flie\WIRELESS_CH573.obj, .\Out_flie\assistant.obj,
>>  .\Out_flie\inface.obj TO .\Out_flie\TestProject PRINT (.\Listings\TestProject.map) CASE DISABLEWARNING (16, 57) REMO
>> VEUNUSED CLASSES (EDATA (0X0-0X1FFF), HDATA (0X0-0X1FFF))


CPU MODE:     251 SOURCE MODE
INTR FRAME:   2 BYTES SAVED ON INTERRUPT
MEMORY MODEL: XSMALL WITH FLOATING POINT ARITHMETIC


INPUT MODULES INCLUDED:
  .\Out_flie\board.obj (board)
         COMMENT TYPE 0: C251 V5.60.0
  .\Out_flie\common.obj (common)
         COMMENT TYPE 0: C251 V5.60.0
  .\Out_flie\adc.obj (adc)
         COMMENT TYPE 0: C251 V5.60.0
  .\Out_flie\delay.obj (delay)
         COMMENT TYPE 0: C251 V5.60.0
  .\Out_flie\eeprom.obj (eeprom)
         COMMENT TYPE 0: C251 V5.60.0
  .\Out_flie\exti.obj (exti)
         COMMENT TYPE 0: C251 V5.60.0
  .\Out_flie\fifo.obj (fifo)
         COMMENT TYPE 0: C251 V5.60.0
  .\Out_flie\gpio.obj (gpio)
         COMMENT TYPE 0: C251 V5.60.0
  .\Out_flie\iic.obj (iic)
         COMMENT TYPE 0: C251 V5.60.0
  .\Out_flie\mdu16.obj (mdu16)
         COMMENT TYPE 0: C251 V5.60.0
  .\Out_flie\nvic.obj (nvic)
         COMMENT TYPE 0: C251 V5.60.0
  .\Out_flie\pwm.obj (pwm)
         COMMENT TYPE 0: C251 V5.60.0
  .\Out_flie\spi.obj (spi)
         COMMENT TYPE 0: C251 V5.60.0
  .\Out_flie\tim.obj (tim)
         COMMENT TYPE 0: C251 V5.60.0
  .\Out_flie\uart.obj (uart)
         COMMENT TYPE 0: C251 V5.60.0
  .\Out_flie\isr.obj (isr)
         COMMENT TYPE 0: C251 V5.60.0
  .\Out_flie\main.obj (main)
         COMMENT TYPE 0: C251 V5.60.0
  .\Out_flie\18TFT.obj (18TFT)
         COMMENT TYPE 0: C251 V5.60.0
  .\Out_flie\ABSOLUTE_ENCODER.obj (ABSOLUTE_ENCODER)
         COMMENT TYPE 0: C251 V5.60.0
  .\Out_flie\AT24C02.obj (AT24C02)
         COMMENT TYPE 0: C251 V5.60.0
  .\Out_flie\BLUETOOTH_CH9141.obj (BLUETOOTH_CH9141)
         COMMENT TYPE 0: C251 V5.60.0
  .\Out_flie\DL1A.obj (DL1A)
         COMMENT TYPE 0: C251 V5.60.0
  .\Out_flie\DL1B.obj (DL1B)
         COMMENT TYPE 0: C251 V5.60.0
  .\Out_flie\FONT.obj (FONT)
L251 LINKER/LOCATER V4.66.93.0                                                        03/08/2024  18:54:18  PAGE 2


         COMMENT TYPE 0: C251 V5.60.0
  .\Out_flie\FUNCTION.obj (FUNCTION)
         COMMENT TYPE 0: C251 V5.60.0
  .\Out_flie\ICM20602.obj (ICM20602)
         COMMENT TYPE 0: C251 V5.60.0
  .\Out_flie\IMU963RA.obj (IMU963RA)
         COMMENT TYPE 0: C251 V5.60.0
  .\Out_flie\IPS114_SPI.obj (IPS114_SPI)
         COMMENT TYPE 0: C251 V5.60.0
  .\Out_flie\IPS200_SPI.obj (IPS200_SPI)
         COMMENT TYPE 0: C251 V5.60.0
  .\Out_flie\MPU6050.obj (MPU6050)
         COMMENT TYPE 0: C251 V5.60.0
  .\Out_flie\OLED.obj (OLED)
         COMMENT TYPE 0: C251 V5.60.0
  .\Out_flie\TSL1401.obj (TSL1401)
         COMMENT TYPE 0: C251 V5.60.0
  .\Out_flie\VIRSCO.obj (VIRSCO)
         COMMENT TYPE 0: C251 V5.60.0
  .\Out_flie\WIRELESS.obj (WIRELESS)
         COMMENT TYPE 0: C251 V5.60.0
  .\Out_flie\WIRELESS_CH573.obj (WIRELESS_CH573)
         COMMENT TYPE 0: C251 V5.60.0
  .\Out_flie\assistant.obj (assistant)
         COMMENT TYPE 0: C251 V5.60.0
  .\Out_flie\inface.obj (inface)
         COMMENT TYPE 0: C251 V5.60.0
  ..\LIB\startup\STC32_FPMU_LARGE_V1.0.LIB (STC32F_FPMU)
         COMMENT TYPE 0: A251 V4.69.13.0
  ..\LIB\peripheral\CONFIG.LIB (SEEKFREE_CONFIG)
         COMMENT TYPE 0: C251 V5.60.0
  D:\KEIL_80251\C251\LIB\C2SFPXS.LIB (PRINTF)
         COMMENT TYPE 0: A251 V4.69.6.0
  D:\KEIL_80251\C251\LIB\C2SFPXS.LIB (?C?PRNFMT)
         COMMENT TYPE 0: A251 V4.69.6.0
  D:\KEIL_80251\C251\LIB\C2SFPXS.LIB (?C?FPCONVERT)
         COMMENT TYPE 0: A251 V4.69.6.0
  D:\KEIL_80251\C251\LIB\C2SFPXS.LIB (?C?FTNPWR)
         COMMENT TYPE 0: A251 V4.69.6.0
  D:\KEIL_80251\C251\LIB\C2SXS.LIB (?C_START)
         COMMENT TYPE 0: A251 V4.69.6.0
  D:\KEIL_80251\C251\LIB\C2SXS.LIB (?C?INITEDATA)
         COMMENT TYPE 0: A251 V4.69.6.0
  D:\KEIL_80251\C251\LIB\C2SXS.LIB (?C?SIDIV)
         COMMENT TYPE 0: A251 V4.69.6.0
  D:\KEIL_80251\C251\LIB\C2SXS.LIB (?C?LMUL)
         COMMENT TYPE 0: A251 V4.69.6.0
  D:\KEIL_80251\C251\LIB\C2SXS.LIB (?C?LIMUL)
         COMMENT TYPE 0: A251 V4.69.6.0
  D:\KEIL_80251\C251\LIB\C2SXS.LIB (?C?ULDIV)
         COMMENT TYPE 0: A251 V4.69.6.0
  D:\KEIL_80251\C251\LIB\C2SXS.LIB (?C?SLDIV)
         COMMENT TYPE 0: A251 V4.69.6.0
  D:\KEIL_80251\C251\LIB\C2SXS.LIB (?C?BMOVENP)
         COMMENT TYPE 0: A251 V4.69.6.0
  D:\KEIL_80251\C251\LIB\C2SXS.LIB (STRLEN)
         COMMENT TYPE 0: C251 V5.58.7
  D:\KEIL_80251\C251\LIB\C2SXS.LIB (memcpy)
         COMMENT TYPE 0: C251 V5.58.7
  D:\KEIL_80251\C251\LIB\C2SXS.LIB (memset)
         COMMENT TYPE 0: C251 V5.58.7
  D:\KEIL_80251\C251\LIB\C2SXS.LIB (?C?INITEDATA_END)
         COMMENT TYPE 0: A251 V4.69.6.0


L251 LINKER/LOCATER V4.66.93.0                                                        03/08/2024  18:54:18  PAGE 3


ACTIVE MEMORY CLASSES OF MODULE:  .\Out_flie\TestProject (board)

BASE        START       END         USED      MEMORY CLASS
==========================================================
000000H     000000H     001FFFH     00056EH   EDATA
000000H     000000H     001FFFH               HDATA
FF0000H     FF0000H     FFFFFFH     00552FH   CODE
000000H     FF0000H     FFFFFFH     0001BCH   HCONST
FF0000H     FF0000H     FFFFFFH     000004H   CONST
000000H     000000H     00007FH     000008H   DATA


MEMORY MAP OF MODULE:  .\Out_flie\TestProject (board)


START     STOP      LENGTH    ALIGN  RELOC    MEMORY CLASS   SEGMENT NAME
=========================================================================
000000H   000007H   000008H   ---    AT..     DATA           "REG BANK 0"
000008H   000208H   000201H   BYTE   UNIT     EDATA          ?ED?TSL1401
000209H   0002E0H   0000D8H   BYTE   UNIT     EDATA          ?ED?ASSISTANT
0002E1H   000335H   000055H   BYTE   UNIT     EDATA          ?ED?BLUETOOTH_CH9141
000336H   00038AH   000055H   BYTE   UNIT     EDATA          ?ED?WIRELESS
00038BH   0003DFH   000055H   BYTE   UNIT     EDATA          ?ED?WIRELESS_CH573
0003E0H   0003F1H   000012H   BYTE   UNIT     EDATA          ?ED?IMU963RA
0003F2H   000403H   000012H   BYTE   UNIT     EDATA          _EDATA_GROUP_
000404H   000411H   00000EH   BYTE   UNIT     EDATA          ?ED?IPS200_SPI
000412H   00041DH   00000CH   BYTE   UNIT     EDATA          ?ED?ICM20602
00041EH   000429H   00000CH   BYTE   UNIT     EDATA          ?ED?MPU6050
00042AH   000433H   00000AH   BYTE   UNIT     EDATA          ?ED?VIRSCO
000434H   000439H   000006H   BYTE   UNIT     EDATA          ?ED?DL1A_SIMIIC_READ_REGS?DL1A
00043AH   00043FH   000006H   BYTE   UNIT     EDATA          ?ED?DL1A_GET_SEQUENCE_STEP_TIMEOUTS?DL1A
000440H   000444H   000005H   BYTE   UNIT     EDATA          ?ED?UART
000445H   000449H   000005H   BYTE   UNIT     EDATA          ?ED?DL1A_SIMIIC_WRITE_DATS?DL1A
00044AH   00044DH   000004H   BYTE   UNIT     EDATA          ?ED?BOARD
00044EH   000451H   000004H   BYTE   UNIT     EDATA          ?ED?DELAY
000452H   000455H   000004H   BYTE   UNIT     EDATA          ?ED?LCD_SET_REGION_SIMSPI?18TFT
000456H   000459H   000004H   BYTE   UNIT     EDATA          ?ED?LCD_SET_REGION?18TFT
00045AH   00045DH   000004H   BYTE   UNIT     EDATA          ?ED?DL1B
00045EH   000461H   000004H   BYTE   UNIT     EDATA          ?ED?ICM20602_SIMSPI_R_REG_BYTES?ICM20602
000462H   000465H   000004H   BYTE   UNIT     EDATA          ?ED?INFACE
000466H   000468H   000003H   BYTE   UNIT     EDATA          ?ED?DL1A
000469H   00046AH   000002H   BYTE   UNIT     EDATA          ?ED?COMMON
00046BH   00046CH   000002H   BYTE   UNIT     EDATA          ?ED?LCD_WRITEDATA_16BIT?18TFT
00046DH   00046EH   000002H   BYTE   UNIT     EDATA          ?ED?IPS114_WRITEDATA_16BIT?IPS114_SPI
00046FH   000470H   000002H   BYTE   UNIT     EDATA          ?ED?IPS200_WRITE_16BIT_DATA_SPI?IPS200_SPI
000471H   000471H   000001H   BYTE   UNIT     EDATA          ?ED?ISR
000472H   000472H   000001H   BYTE   UNIT     EDATA          ?ED?DL1A_GET_SEQUENCE_STEP_ENABLES?DL1A
000473H   000473H   000001H   BYTE   UNIT     EDATA          ?ED?DL1A_GET_VCSEL_PULSE_PERIOD?DL1A
000474H   000474H   000001H   BYTE   UNIT     EDATA          ?ED?ICM20602_READ_REGISTER?ICM20602
000475H   000475H   000001H   BYTE   UNIT     EDATA          ?ED?IMU963RA_READ_ACC_GYRO_REGISTER?IMU963RA
000476H   000575H   000100H   BYTE   UNIT     EDATA          ?STACK
000576H   FEFFFFH   FEFA8AH   ---    ---      **GAP**
FF0000H   FF0002H   000003H   ---    OFFS..   CODE           ?CO?start251?4
FF0003H   FF0005H   000003H   ---    OFFS..   CODE           ?PR?IV?0
FF0006H   FF000AH   000005H   BYTE   INSEG    CODE           ?PR?ENCODER_DELAY_US?ABSOLUTE_ENCODER
FF000BH   FF000DH   000003H   ---    OFFS..   CODE           ?PR?IV?1
FF000EH   FF0010H   000003H   BYTE   INSEG    CODE           ?PR?ENABLEGLOBALIRQ?BOARD
FF0011H   FF0011H   000001H   BYTE   INSEG    CODE           ?PR?INT1_ISR?ISR
FF0012H   FF0012H   000001H   BYTE   INSEG    CODE           ?PR?TM0_ISR?ISR
FF0013H   FF0015H   000003H   ---    OFFS..   CODE           ?PR?IV?2
FF0016H   FF0018H   000003H   BYTE   INSEG    CODE           ?PR?IPS200_WRITE_8BIT_DATA_SPI?IPS200_SPI
FF0019H   FF0019H   000001H   BYTE   INSEG    CODE           ?PR?TM1_ISR?ISR
FF001AH   FF001AH   000001H   ---    ---      **GAP**
FF001BH   FF001DH   000003H   ---    OFFS..   CODE           ?PR?IV?3
FF001EH   FF0021H   000004H   BYTE   UNIT     CONST          ?CO?PRINTF
L251 LINKER/LOCATER V4.66.93.0                                                        03/08/2024  18:54:18  PAGE 4


FF0022H   FF0022H   000001H   ---    ---      **GAP**
FF0023H   FF0025H   000003H   ---    OFFS..   CODE           ?PR?IV?4
FF0026H   FF0041H   00001CH   BYTE   INSEG    CODE           ?PR?DL1A_SCCB_WAITACK?DL1A
FF0042H   FF0042H   000001H   ---    ---      **GAP**
FF0043H   FF0045H   000003H   ---    OFFS..   CODE           ?PR?IV?8
FF0046H   FF0052H   00000DH   BYTE   INSEG    CODE           ?PR?AT24C02_SIMIIC_DELAY?AT24C02
FF0053H   FF0055H   000003H   ---    OFFS..   CODE           ?PR?IV?10
FF0056H   FF005AH   000005H   ---    ---      **GAP**
FF005BH   FF005DH   000003H   ---    OFFS..   CODE           ?PR?IV?11
FF005EH   FF0062H   000005H   ---    ---      **GAP**
FF0063H   FF0065H   000003H   ---    OFFS..   CODE           ?PR?IV?12
FF0066H   FF0081H   00001CH   BYTE   INSEG    CODE           ?PR?DL1B_SCCB_WAITACK?DL1B
FF0082H   FF0082H   000001H   ---    ---      **GAP**
FF0083H   FF0085H   000003H   ---    OFFS..   CODE           ?PR?IV?16
FF0086H   FF008AH   000005H   ---    ---      **GAP**
FF008BH   FF008DH   000003H   ---    OFFS..   CODE           ?PR?IV?17
FF008EH   FF0092H   000005H   ---    ---      **GAP**
FF0093H   FF0095H   000003H   ---    OFFS..   CODE           ?PR?IV?18
FF0096H   FF009AH   000005H   ---    ---      **GAP**
FF009BH   FF009DH   000003H   ---    OFFS..   CODE           ?PR?IV?19
FF009EH   FF00A2H   000005H   ---    ---      **GAP**
FF00A3H   FF00A5H   000003H   ---    OFFS..   CODE           ?PR?IV?20
FF00A6H   FF212CH   002087H   BYTE   UNIT     CODE           ?CO?SEEKFREE_CONFIG
FF212DH   FF374CH   001620H   BYTE   UNIT     CODE           ?CO?FONT
FF374DH   FF3E1CH   0006D0H   BYTE   UNIT     CODE           ?C?LIB_CODE
FF3E1DH   FF4289H   00046DH   BYTE   INSEG    CODE           ?PR?SET_CLK?BOARD
FF428AH   FF4680H   0003F7H   BYTE   INSEG    CODE           ?PR?GPIO_MODE?GPIO
FF4681H   FF483FH   0001BFH   BYTE   INSEG    CODE           ?PR?UART_INIT?UART
FF4840H   FF491FH   0000E0H   BYTE   INSEG    CODE           ?PR?FIFO_WRITE_BUFFER?FIFO
FF4920H   FF49FAH   0000DBH   BYTE   INSEG    CODE           ?PR?DL1A_GET_SEQUENCE_STEP_TIMEOUTS?DL1A
FF49FBH   FF4A70H   000076H   BYTE   INSEG    CODE           ?PR?BOARD_INIT?BOARD
FF4A71H   FF4ACEH   00005EH   BYTE   INSEG    CODE           ?PR?UART4_ISR?ISR
FF4ACFH   FF4B26H   000058H   BYTE   INSEG    CODE           ?PR?DL1A_GET_SEQUENCE_STEP_ENABLES?DL1A
FF4B27H   FF4B7AH   000054H   BYTE   INSEG    CODE           ?PR?UART_PUTCHAR?UART
FF4B7BH   FF4BCEH   000054H   BYTE   INSEG    CODE           ?PR?DL1A_SIMIIC_READ_REGS?DL1A
FF4BCFH   FF4C20H   000052H   BYTE   INSEG    CODE           ?PR?IMU963RA_READ_MAG_REGISTER?IMU963RA
FF4C21H   FF4C6DH   00004DH   BYTE   INSEG    CODE           ?PR?DL1A_GET_VCSEL_PULSE_PERIOD?DL1A
FF4C6EH   FF4CB9H   00004CH   BYTE   INSEG    CODE           ?PR?LCD_SET_REGION_SIMSPI?18TFT
FF4CBAH   FF4D01H   000048H   BYTE   INSEG    CODE           ?PR?LCD_SET_REGION?18TFT
FF4D02H   FF4D46H   000045H   BYTE   INSEG    CODE           ?PR?WAIT?IIC
FF4D47H   FF4D88H   000042H   BYTE   INSEG    CODE           ?PR?FIFO_HEAD_OFFSET?FIFO
FF4D89H   FF4D9BH   000013H   BYTE   UNIT     CODE           ?C_C51STARTUP
FF4D9CH   FF4DC4H   000029H   BYTE   UNIT     CODE           ?C_C51STARTUP?2
FF4DC5H   FF4DC7H   000003H   BYTE   UNIT     CODE           ?C_C51STARTUP?3
FF4DC8H   FF4E05H   00003EH   BYTE   INSEG    CODE           ?PR?DL1A_TIMEOUT_MCLKS_TO_MICROSECONDS?DL1A
FF4E06H   FF4E42H   00003DH   BYTE   INSEG    CODE           ?PR?UART1_ISR?ISR
FF4E43H   FF4E7EH   00003CH   BYTE   INSEG    CODE           ?PR?DL1A_TIMEOUT_MICROSECONDS_TO_MCLKS?DL1A
FF4E7FH   FF4EB9H   00003BH   BYTE   INSEG    CODE           ?PR?DL1A_READ_CH?DL1A
FF4EBAH   FF4EF4H   00003BH   BYTE   INSEG    CODE           ?PR?DL1B_READ_CH?DL1B
FF4EF5H   FF4F29H   000035H   BYTE   INSEG    CODE           ?PR?DL1A_SIMIIC_WRITE_DATS?DL1A
FF4F2AH   FF4F5DH   000034H   BYTE   INSEG    CODE           ?PR?DL1A_ENCODE_TIMEOUT?DL1A
FF4F5EH   FF4F8DH   000030H   BYTE   INSEG    CODE           ?PR?ICM20602_SIMSPI_R_REG_BYTES?ICM20602
FF4F8EH   FF4FBBH   00002EH   BYTE   INSEG    CODE           ?PR?DL1A_SEND_CH?DL1A
FF4FBCH   FF4FE9H   00002EH   BYTE   INSEG    CODE           ?PR?DL1B_SEND_CH?DL1B
FF4FEAH   FF5015H   00002CH   BYTE   INSEG    CODE           ?PR?LCD_WRITEDATA_16BIT_SIMSPI?18TFT
FF5016H   FF5041H   00002CH   BYTE   INSEG    CODE           ?PR?IPS114_WRITEDATAI_16BIT_SIMSPI?IPS114_SPI
FF5042H   FF506CH   00002BH   BYTE   INSEG    CODE           ?PR?MAIN?MAIN
FF506DH   FF5095H   000029H   BYTE   INSEG    CODE           ?PR?LCD_WRITEINDEX_SIMSPI?18TFT
FF5096H   FF50BEH   000029H   BYTE   INSEG    CODE           ?PR?LCD_WRITEDATA_SIMSPI?18TFT
FF50BFH   FF50E7H   000029H   BYTE   INSEG    CODE           ?PR?IPS114_WRITEINDEX_SIMSPI?IPS114_SPI
FF50E8H   FF5110H   000029H   BYTE   INSEG    CODE           ?PR?OLED_WRCMD?OLED
FF5111H   FF5139H   000029H   BYTE   INSEG    CODE           ?PR?OLED_WRDAT?OLED
FF513AH   FF515EH   000025H   BYTE   INSEG    CODE           ?PR?MEMCPY?_?MEMCPY
FF515FH   FF5181H   000023H   BYTE   INSEG    CODE           ?PR?DELAY_INIT?DELAY
FF5182H   FF51A4H   000023H   BYTE   INSEG    CODE           ?PR?ICM20602_SIMSPI_WR_BYTE?ICM20602
L251 LINKER/LOCATER V4.66.93.0                                                        03/08/2024  18:54:18  PAGE 5


FF51A5H   FF51C7H   000023H   BYTE   INSEG    CODE           ?PR?IMU963RA_SIMSPI_WR_BYTE?IMU963RA
FF51C8H   FF51EAH   000023H   BYTE   INSEG    CODE           ?PR?OLED_SET_POS?OLED
FF51EBH   FF520BH   000021H   BYTE   INSEG    CODE           ?PR?OLED_SET_POS_SPI?OLED
FF520CH   FF522BH   000020H   BYTE   INSEG    CODE           ?PR?AT24C02_SIMIIC_SENDACK?AT24C02
FF522CH   FF524BH   000020H   BYTE   INSEG    CODE           ?PR?DL1A_SIMIIC_SENDACK?DL1A
FF524CH   FF526BH   000020H   BYTE   INSEG    CODE           ?PR?DL1B_SIMIIC_SENDACK?DL1B
FF526CH   FF528BH   000020H   BYTE   INSEG    CODE           ?PR?MPU6050_SIMIIC_SENDACK?MPU6050
FF528CH   FF52AAH   00001FH   BYTE   INSEG    CODE           ?PR?DELAY_MS?DELAY
FF52ABH   FF52C9H   00001FH   BYTE   INSEG    CODE           ?PR?LCD_WRITEDATA_16BIT?18TFT
FF52CAH   FF52E8H   00001FH   BYTE   INSEG    CODE           ?PR?IPS114_WRITEDATA_16BIT?IPS114_SPI
FF52E9H   FF5306H   00001EH   BYTE   INSEG    CODE           ?PR?UART2_ISR?ISR
FF5307H   FF5324H   00001EH   BYTE   INSEG    CODE           ?PR?UART3_ISR?ISR
FF5325H   FF5340H   00001CH   BYTE   INSEG    CODE           ?PR?IMU963RA_SIMSPI_R_REG_BYTE?IMU963RA
FF5341H   FF535BH   00001BH   BYTE   INSEG    CODE           ?PR?IMU963RA_READ_ACC_GYRO_REGISTER?IMU963RA
FF535CH   FF5374H   000019H   BYTE   INSEG    CODE           ?PR?DELAY_US?DELAY
FF5375H   FF538DH   000019H   BYTE   INSEG    CODE           ?PR?BLUETOOTH_CH9141_UART_CALLBACK?BLUETOOTH_CH9141
FF538EH   FF53A6H   000019H   BYTE   INSEG    CODE           ?PR?WIRELESS_UART_CALLBACK?WIRELESS
FF53A7H   FF53BEH   000018H   BYTE   INSEG    CODE           ?PR?ICM20602_SIMSPI_R_REG_BYTE?ICM20602
FF53BFH   FF53D6H   000018H   BYTE   INSEG    CODE           ?PR?IPS200_WRITE_16BIT_DATA_SPI?IPS200_SPI
FF53D7H   FF53EBH   000015H   BYTE   INSEG    CODE           ?PR?IIC_DELAY_US?IIC
FF53ECH   FF53FEH   000013H   BYTE   INSEG    CODE           ?PR?IMU963RA_SIMSPI_W_REG_BYTE?IMU963RA
FF53FFH   FF5410H   000012H   BYTE   INSEG    CODE           ?PR?ICM20602_READ_REGISTER?ICM20602
FF5411H   FF5421H   000011H   BYTE   INSEG    CODE           ?PR?AT24C02_SIMIIC_STOP?AT24C02
FF5422H   FF5432H   000011H   BYTE   INSEG    CODE           ?PR?DL1A_SIMIIC_STOP?DL1A
FF5433H   FF5443H   000011H   BYTE   INSEG    CODE           ?PR?MPU6050_SIMIIC_STOP?MPU6050
FF5444H   FF5453H   000010H   BYTE   INSEG    CODE           ?PR?DL1A_DECODE_TIMEOUT?DL1A
FF5454H   FF5463H   000010H   BYTE   INSEG    CODE           ?PR?IPS200_WRITE_COMMAND?IPS200_SPI
FF5464H   FF5472H   00000FH   BYTE   INSEG    CODE           ?PR?DL1A_SIMIIC_START?DL1A
FF5473H   FF5481H   00000FH   BYTE   INSEG    CODE           ?PR?MPU6050_SIMIIC_START?MPU6050
FF5482H   FF548FH   00000EH   BYTE   INSEG    CODE           ?PR?ICACHEON?BOARD
FF5490H   FF549DH   00000EH   BYTE   INSEG    CODE           ?PR?PUTCHAR?BOARD
FF549EH   FF54ABH   00000EH   BYTE   INSEG    CODE           ?PR?SPI_MOSI?SPI
FF54ACH   FF54B8H   00000DH   BYTE   INSEG    CODE           ?PR?DL1A_SIMIIC_DELAY?DL1A
FF54B9H   FF54C3H   00000BH   BYTE   INSEG    CODE           ?PR?CLOCK_INIT?BOARD
FF54C4H   FF54CEH   00000BH   BYTE   INSEG    CODE           ?PR?DL1B_SIMIIC_DELAY?DL1B
FF54CFH   FF54D9H   00000BH   BYTE   INSEG    CODE           ?PR?MPU6050_SIMIIC_DELAY?MPU6050
FF54DAH   FF54E3H   00000AH   BYTE   INSEG    CODE           ?PR?LCD_WRITEINDEX?18TFT
FF54E4H   FF54EDH   00000AH   BYTE   INSEG    CODE           ?PR?LCD_WRITEDATA?18TFT
FF54EEH   FF54F7H   00000AH   BYTE   INSEG    CODE           ?PR?IPS114_WRITEINDEX?IPS114_SPI
FF54F8H   FF5501H   00000AH   BYTE   INSEG    CODE           ?PR?IPS200_WRITE_16BIT_DATA?IPS200_SPI
FF5502H   FF550BH   00000AH   BYTE   INSEG    CODE           ?PR?OLED_WRCMD_SPI?OLED
FF550CH   FF5515H   00000AH   BYTE   INSEG    CODE           ?PR?OLED_WRDAT_SPI?OLED
FF5516H   FF551DH   000008H   BYTE   INSEG    CODE           ?PR?INT2_ISR?ISR
FF551EH   FF5525H   000008H   BYTE   INSEG    CODE           ?PR?INT3_ISR?ISR
FF5526H   FF552DH   000008H   BYTE   INSEG    CODE           ?PR?INT4_ISR?ISR
FF552EH   FF5535H   000008H   BYTE   INSEG    CODE           ?PR?TM2_ISR?ISR
FF5536H   FF553DH   000008H   BYTE   INSEG    CODE           ?PR?TM3_ISR?ISR
FF553EH   FF5545H   000008H   BYTE   INSEG    CODE           ?PR?TM4_ISR?ISR
FF5546H   FF554DH   000008H   BYTE   INSEG    CODE           ?PR?IMU963RA_WRITE_ACC_GYRO_REGISTER?IMU963RA
FF554EH   FF5554H   000007H   BYTE   INSEG    CODE           ?PR?INT0_ISR?ISR
FF5555H   FF55E9H   000095H   BYTE   UNIT     HCONST         ?C_INITEDATA
FF55EAH   FF5641H   000058H   BYTE   UNIT     HCONST         ?HC?PWM
FF5642H   FF568CH   00004BH   BYTE   UNIT     HCONST         ?HC?IMU963RA
FF568DH   FF56C1H   000035H   BYTE   UNIT     HCONST         ?HC?ICM20602
FF56C2H   FF56D7H   000016H   BYTE   UNIT     HCONST         ?HC?MPU6050
FF56D8H   FF56EAH   000013H   BYTE   UNIT     HCONST         ?HC?DL1A
FF56EBH   FF56FAH   000010H   BYTE   UNIT     HCONST         ?HC?FUNCTION
FF56FBH   FF5704H   00000AH   BYTE   UNIT     HCONST         ?HC?OLED
FF5705H   FF570AH   000006H   BYTE   UNIT     HCONST         ?HC?18TFT
FF570BH   FF5710H   000006H   BYTE   UNIT     HCONST         ?HC?IPS114_SPI

* * * * * * * * *   R E M O V E D     S E G M E N T S   * * * * * * * *
   *DEL*:           000012H   BYTE   INSEG    CODE           ?PR?DISALBE_ICACHE?BOARD
   *DEL*:           000012H   BYTE   INSEG    CODE           ?PR?ENALBE_ICACHE?BOARD
   *DEL*:           000003H   BYTE   INSEG    CODE           ?PR?DISABLEGLOBALIRQ?BOARD
L251 LINKER/LOCATER V4.66.93.0                                                        03/08/2024  18:54:18  PAGE 6


   *DEL*:           00002EH   BYTE   INSEG    CODE           ?PR?ADC_ONCE?ADC
   *DEL*:           00005EH   BYTE   INSEG    CODE           ?PR?ADC_INIT?ADC
   *DEL*:           000014H   BYTE   INSEG    CODE           ?PR?IAP_SET_TPS?EEPROM
   *DEL*:           000013H   BYTE   INSEG    CODE           ?PR?EEPROM_TRIG?EEPROM
   *DEL*:           000019H   BYTE   INSEG    CODE           ?PR?IAP_ERASE_PAGE?EEPROM
   *DEL*:           000004H   BYTE   INSEG    CODE           ?PR?IAP_IDLE?EEPROM
   *DEL*:           000044H   BYTE   INSEG    CODE           ?PR?IAP_READ_BYTES?EEPROM
   *DEL*:           000006H   BYTE   INSEG    CODE           ?PR?IAP_INIT?EEPROM
   *DEL*:           000040H   BYTE   INSEG    CODE           ?PR?IAP_WRITE_BYTES?EEPROM
   *DEL*:           00000CH   BYTE   INSEG    CODE           ?PR?IAP_GET_CMD_STATE?EEPROM
   *DEL*:           000006H   BYTE   UNIT     EDATA          ?ED?IAP_READ_BYTES?EEPROM
   *DEL*:           000006H   BYTE   UNIT     EDATA          ?ED?IAP_WRITE_BYTES?EEPROM
   *DEL*:           00003EH   BYTE   INSEG    CODE           ?PR?EXIT_INIT?EXTI
   *DEL*:           000113H   BYTE   INSEG    CODE           ?PR?FIFO_READ_BUFFER?FIFO
   *DEL*:           000025H   BYTE   INSEG    CODE           ?PR?FIFO_CLEAR?FIFO
   *DEL*:           000046H   BYTE   INSEG    CODE           ?PR?FIFO_END_OFFSET?FIFO
   *DEL*:           000015H   BYTE   INSEG    CODE           ?PR?FIFO_USED?FIFO
   *DEL*:           000043H   BYTE   INSEG    CODE           ?PR?FIFO_INIT?FIFO
   *DEL*:           000004H   BYTE   UNIT     EDATA          ?ED?FIFO_INIT?FIFO
   *DEL*:           00000FH   BYTE   UNIT     EDATA          ?ED?FIFO_READ_BUFFER?FIFO
   *DEL*:           00006EH   BYTE   INSEG    CODE           ?PR?GPIO_PULL_SET?GPIO
   *DEL*:           000017H   BYTE   INSEG    CODE           ?PR?SEND_DATA?IIC
   *DEL*:           00002FH   BYTE   INSEG    CODE           ?PR?IIC_CHANGE_PIN?IIC
   *DEL*:           00001CH   BYTE   INSEG    CODE           ?PR?RECV_DATA?IIC
   *DEL*:           000010H   BYTE   INSEG    CODE           ?PR?START?IIC
   *DEL*:           000018H   BYTE   INSEG    CODE           ?PR?SEND_ACK?IIC
   *DEL*:           000010H   BYTE   INSEG    CODE           ?PR?RECV_ACK?IIC
   *DEL*:           000010H   BYTE   INSEG    CODE           ?PR?STOP?IIC
   *DEL*:           000019H   BYTE   INSEG    CODE           ?PR?SEND_NAK?IIC
   *DEL*:           00005EH   BYTE   INSEG    CODE           ?PR?IIC_INIT?IIC
   *DEL*:           000075H   BYTE   INSEG    CODE           ?PR?IIC_READ_REG?IIC
   *DEL*:           00009CH   BYTE   INSEG    CODE           ?PR?IIC_READ_REG_BYTES?IIC
   *DEL*:           000060H   BYTE   INSEG    CODE           ?PR?IIC_WRITE_REG?IIC
   *DEL*:           000004H   BYTE   UNIT     EDATA          ?ED?IIC_INIT?IIC
   *DEL*:           000004H   BYTE   UNIT     EDATA          ?ED?IIC_READ_REG?IIC
   *DEL*:           000003H   BYTE   UNIT     EDATA          ?ED?IIC_READ_REG_BYTES?IIC
   *DEL*:           00006CH   BYTE   INSEG    CODE           ?PR?NVIC_SETPRIORITY?NVIC
   *DEL*:           0000C8H   BYTE   INSEG    CODE           ?PR?PWM_DUTY?PWM
   *DEL*:           000241H   BYTE   INSEG    CODE           ?PR?PWM_SET_GPIO?PWM
   *DEL*:           000131H   BYTE   INSEG    CODE           ?PR?PWM_FREQ?PWM
   *DEL*:           0002FCH   BYTE   INSEG    CODE           ?PR?PWM_INIT?PWM
   *DEL*:           00000CH   BYTE   UNIT     EDATA          ?ED?PWM_INIT?PWM
   *DEL*:           000004H   BYTE   UNIT     EDATA          ?ED?PWM_FREQ?PWM
   *DEL*:           00001DH   BYTE   INSEG    CODE           ?PR?SPI_CHANGE_MODE?SPI
   *DEL*:           0000AEH   BYTE   INSEG    CODE           ?PR?SPI_CHANGE_PIN?SPI
   *DEL*:           0000A2H   BYTE   INSEG    CODE           ?PR?SPI_INIT?SPI
   *DEL*:           000007H   BYTE   UNIT     EDATA          ?ED?SPI_INIT?SPI
   *DEL*:           00004DH   BYTE   INSEG    CODE           ?PR?CTIMER_COUNT_READ?TIM
   *DEL*:           000094H   BYTE   INSEG    CODE           ?PR?PIT_TIMER_MS?TIM
   *DEL*:           00004AH   BYTE   INSEG    CODE           ?PR?CTIMER_COUNT_INIT?TIM
   *DEL*:           000051H   BYTE   INSEG    CODE           ?PR?CTIMER_COUNT_CLEAN?TIM
   *DEL*:           000029H   BYTE   INSEG    CODE           ?PR?UART_PUTBUFF?UART
   *DEL*:           00001EH   BYTE   INSEG    CODE           ?PR?UART_PUTSTR?UART
   *DEL*:           000006H   BYTE   UNIT     EDATA          ?ED?UART_PUTBUFF?UART
   *DEL*:           000002H   BYTE   UNIT     EDATA          ?ED?UART_PUTSTR?UART
   *DEL*:           00008BH   BYTE   INSEG    CODE           ?PR?LCD_SHOWUINT16?18TFT
   *DEL*:           000082H   BYTE   INSEG    CODE           ?PR?LCD_SHOWINT32_SIMSPI?18TFT
   *DEL*:           0000DDH   BYTE   INSEG    CODE           ?PR?LCD_SHOWINT16_SIMSPI?18TFT
   *DEL*:           000082H   BYTE   INSEG    CODE           ?PR?LCD_SHOWINT32?18TFT
   *DEL*:           0000DDH   BYTE   INSEG    CODE           ?PR?LCD_SHOWINT16?18TFT
   *DEL*:           00002BH   BYTE   INSEG    CODE           ?PR?LCD_CLEAR_SIMSPI?18TFT
   *DEL*:           00002BH   BYTE   INSEG    CODE           ?PR?LCD_CLEAR?18TFT
   *DEL*:           00004EH   BYTE   INSEG    CODE           ?PR?LCD_SHOWSTR_SIMSPI?18TFT
   *DEL*:           00004EH   BYTE   INSEG    CODE           ?PR?LCD_SHOWSTR?18TFT
   *DEL*:           0001EFH   BYTE   INSEG    CODE           ?PR?LCD_INIT_SIMSPI?18TFT
L251 LINKER/LOCATER V4.66.93.0                                                        03/08/2024  18:54:18  PAGE 7


   *DEL*:           00009AH   BYTE   INSEG    CODE           ?PR?SHOWIMAGE?18TFT
   *DEL*:           0001EEH   BYTE   INSEG    CODE           ?PR?LCD_INIT?18TFT
   *DEL*:           00007BH   BYTE   INSEG    CODE           ?PR?LCD_SHOWUINT8_SIMSPI?18TFT
   *DEL*:           00007BH   BYTE   INSEG    CODE           ?PR?LCD_SHOWUINT8?18TFT
   *DEL*:           0000B9H   BYTE   INSEG    CODE           ?PR?LCD_SHOWINT8_SIMSPI?18TFT
   *DEL*:           0000B9H   BYTE   INSEG    CODE           ?PR?LCD_SHOWINT8?18TFT
   *DEL*:           0000F8H   BYTE   INSEG    CODE           ?PR?LCD_SHOWFLOAT_SIMSPI?18TFT
   *DEL*:           000013H   BYTE   INSEG    CODE           ?PR?LCD_DRAWPOINT_SIMSPI?18TFT
   *DEL*:           0000F8H   BYTE   INSEG    CODE           ?PR?LCD_SHOWFLOAT?18TFT
   *DEL*:           000013H   BYTE   INSEG    CODE           ?PR?LCD_DRAWPOINT?18TFT
   *DEL*:           00008EH   BYTE   INSEG    CODE           ?PR?LCD_SHOWCHAR_SIMSPI?18TFT
   *DEL*:           00008EH   BYTE   INSEG    CODE           ?PR?LCD_SHOWCHAR?18TFT
   *DEL*:           00008BH   BYTE   INSEG    CODE           ?PR?LCD_SHOWUINT16_SIMSPI?18TFT
   *DEL*:           000004H   BYTE   UNIT     EDATA          ?ED?LCD_SHOWCHAR_SIMSPI?18TFT
   *DEL*:           000006H   BYTE   UNIT     EDATA          ?ED?LCD_SHOWSTR_SIMSPI?18TFT
   *DEL*:           000005H   BYTE   UNIT     EDATA          ?ED?LCD_SHOWINT8_SIMSPI?18TFT
   *DEL*:           000004H   BYTE   UNIT     EDATA          ?ED?LCD_SHOWUINT8_SIMSPI?18TFT
   *DEL*:           000008H   BYTE   UNIT     EDATA          ?ED?LCD_SHOWINT16_SIMSPI?18TFT
   *DEL*:           000006H   BYTE   UNIT     EDATA          ?ED?LCD_SHOWUINT16_SIMSPI?18TFT
   *DEL*:           000028H   BYTE   UNIT     EDATA          ?ED?LCD_SHOWINT32_SIMSPI?18TFT
   *DEL*:           00002BH   BYTE   UNIT     EDATA          ?ED?LCD_SHOWFLOAT_SIMSPI?18TFT
   *DEL*:           000004H   BYTE   UNIT     EDATA          ?ED?LCD_SHOWCHAR?18TFT
   *DEL*:           000006H   BYTE   UNIT     EDATA          ?ED?LCD_SHOWSTR?18TFT
   *DEL*:           000005H   BYTE   UNIT     EDATA          ?ED?LCD_SHOWINT8?18TFT
   *DEL*:           000004H   BYTE   UNIT     EDATA          ?ED?LCD_SHOWUINT8?18TFT
   *DEL*:           000008H   BYTE   UNIT     EDATA          ?ED?LCD_SHOWINT16?18TFT
   *DEL*:           000006H   BYTE   UNIT     EDATA          ?ED?LCD_SHOWUINT16?18TFT
   *DEL*:           000028H   BYTE   UNIT     EDATA          ?ED?LCD_SHOWINT32?18TFT
   *DEL*:           00002BH   BYTE   UNIT     EDATA          ?ED?LCD_SHOWFLOAT?18TFT
   *DEL*:           000008H   BYTE   UNIT     EDATA          ?ED?SHOWIMAGE?18TFT
   *DEL*:           000011H   BYTE   INSEG    CODE           ?PR?ENCODER_SELF4_CHECK?ABSOLUTE_ENCODER
   *DEL*:           000011H   BYTE   INSEG    CODE           ?PR?ENCODER_SELF5_CHECK?ABSOLUTE_ENCODER
   *DEL*:           00002FH   BYTE   INSEG    CODE           ?PR?ENCODER_SPI_R_REG_BYTE?ABSOLUTE_ENCODER
   *DEL*:           000038H   BYTE   INSEG    CODE           ?PR?ENCODER_SPI_W_REG_BYTE?ABSOLUTE_ENCODER
   *DEL*:           00001CH   BYTE   INSEG    CODE           ?PR?SIMSPI_R_REG_BYTE?ABSOLUTE_ENCODER
   *DEL*:           00001AH   BYTE   INSEG    CODE           ?PR?SIMSPI_W_REG_BYTE?ABSOLUTE_ENCODER
   *DEL*:           000029H   BYTE   INSEG    CODE           ?PR?ENCODER_INIT_SPI?ABSOLUTE_ENCODER
   *DEL*:           000004H   BYTE   INSEG    CODE           ?PR?SPI_WR_BYTE?ABSOLUTE_ENCODER
   *DEL*:           000024H   BYTE   INSEG    CODE           ?PR?SET_ZERO_POSITION_SIMSPI?ABSOLUTE_ENCODER
   *DEL*:           000023H   BYTE   INSEG    CODE           ?PR?ENCODER_ANGLE_SIMSPI?ABSOLUTE_ENCODER
   *DEL*:           00001CH   BYTE   INSEG    CODE           ?PR?SPI_R_REG_BYTE?ABSOLUTE_ENCODER
   *DEL*:           00001AH   BYTE   INSEG    CODE           ?PR?SPI_W_REG_BYTE?ABSOLUTE_ENCODER
   *DEL*:           00002FH   BYTE   INSEG    CODE           ?PR?ENCODER_SIMSPI_R_REG_BYTE?ABSOLUTE_ENCODER
   *DEL*:           000038H   BYTE   INSEG    CODE           ?PR?ENCODER_SIMSPI_W_REG_BYTE?ABSOLUTE_ENCODER
   *DEL*:           00000FH   BYTE   INSEG    CODE           ?PR?ENCODER_INIT_SIMSPI?ABSOLUTE_ENCODER
   *DEL*:           000024H   BYTE   INSEG    CODE           ?PR?SET_ZERO_POSITION_SPI?ABSOLUTE_ENCODER
   *DEL*:           00001FH   BYTE   INSEG    CODE           ?PR?SIMSPI_WR_BYTE?ABSOLUTE_ENCODER
   *DEL*:           000023H   BYTE   INSEG    CODE           ?PR?ENCODER_ANGLE_SPI?ABSOLUTE_ENCODER
   *DEL*:           000001H   BYTE   UNIT     EDATA          ?ED?ENCODER_SELF4_CHECK?ABSOLUTE_ENCODER
   *DEL*:           000001H   BYTE   UNIT     EDATA          ?ED?ENCODER_SELF5_CHECK?ABSOLUTE_ENCODER
   *DEL*:           000029H   BYTE   INSEG    CODE           ?PR?AT24C02_SIMIIC_READ_REG?AT24C02
   *DEL*:           00005EH   BYTE   INSEG    CODE           ?PR?AT24C02_READ_BYTES?AT24C02
   *DEL*:           000022H   BYTE   INSEG    CODE           ?PR?AT24C02_SIMIIC_WRITE_REG?AT24C02
   *DEL*:           000015H   BYTE   INSEG    CODE           ?PR?AT24C02_READ_BYTE?AT24C02
   *DEL*:           00005BH   BYTE   INSEG    CODE           ?PR?AT24C02_WRITE_BYTES?AT24C02
   *DEL*:           000019H   BYTE   INSEG    CODE           ?PR?AT24C02_WRITE_BYTE?AT24C02
   *DEL*:           00003BH   BYTE   INSEG    CODE           ?PR?AT24C02_READ_CH?AT24C02
   *DEL*:           00002EH   BYTE   INSEG    CODE           ?PR?AT24C02_SEND_CH?AT24C02
   *DEL*:           00001CH   BYTE   INSEG    CODE           ?PR?AT24C02_SCCB_WAITACK?AT24C02
   *DEL*:           00000FH   BYTE   INSEG    CODE           ?PR?AT24C02_SIMIIC_START?AT24C02
   *DEL*:           000002H   BYTE   UNIT     EDATA          ?ED?AT24C02_WRITE_BYTES?AT24C02
   *DEL*:           000002H   BYTE   UNIT     EDATA          ?ED?AT24C02_READ_BYTES?AT24C02
   *DEL*:           000022H   BYTE   INSEG    CODE           ?PR?BLUETOOTH_CH9141_READ_BUFF?BLUETOOTH_CH9141
   *DEL*:           0000B5H   BYTE   INSEG    CODE           ?PR?BLUETOOTH_CH9141_SEND_BUFF?BLUETOOTH_CH9141
   *DEL*:           00003EH   BYTE   INSEG    CODE           ?PR?BLUETOOTH_CH9141_INIT?BLUETOOTH_CH9141
L251 LINKER/LOCATER V4.66.93.0                                                        03/08/2024  18:54:18  PAGE 8


   *DEL*:           000006H   BYTE   UNIT     EDATA          ?ED?BLUETOOTH_CH9141_SEND_BUFF?BLUETOOTH_CH9141
   *DEL*:           000004H   BYTE   UNIT     EDATA          ?ED?BLUETOOTH_CH9141_READ_BUFF?BLUETOOTH_CH9141
   *DEL*:           000027H   BYTE   INSEG    CODE           ?PR?DL1A_SET_SIGNAL_RATE_LIMIT?DL1A
   *DEL*:           00017CH   BYTE   INSEG    CODE           ?PR?DL1A_GET_SPAD_INFO?DL1A
   *DEL*:           00005DH   BYTE   INSEG    CODE           ?PR?DL1A_GET_DISTANCE?DL1A
   *DEL*:           000077H   BYTE   INSEG    CODE           ?PR?DL1A_PERFORM_SINGLE_REF_CALIBRATION?DL1A
   *DEL*:           000073H   BYTE   INSEG    CODE           ?PR?DL1A_GET_MEASUREMENT_TIMING_BUDGET?DL1A
   *DEL*:           000029H   BYTE   INSEG    CODE           ?PR?DL1A_SIMIIC_READ_REG?DL1A
   *DEL*:           000054H   BYTE   INSEG    CODE           ?PR?DL1A_SIMIIC_READ_REGS_1?DL1A
   *DEL*:           0000E4H   BYTE   INSEG    CODE           ?PR?DL1A_SET_MEASUREMENT_TIMING_BUDGET?DL1A
   *DEL*:           000022H   BYTE   INSEG    CODE           ?PR?DL1A_SIMIIC_WRITE_REG?DL1A
   *DEL*:           00061BH   BYTE   INSEG    CODE           ?PR?DL1A_INIT?DL1A
   *DEL*:           000006H   BYTE   UNIT     EDATA          ?ED?DL1A_SIMIIC_READ_REGS_1?DL1A
   *DEL*:           000008H   BYTE   UNIT     EDATA          ?ED?DL1A_GET_SPAD_INFO?DL1A
   *DEL*:           000003H   BYTE   UNIT     EDATA          ?ED?DL1A_PERFORM_SINGLE_REF_CALIBRATION?DL1A
   *DEL*:           000023H   BYTE   UNIT     EDATA          ?ED?DL1A_SET_MEASUREMENT_TIMING_BUDGET?DL1A
   *DEL*:           00001BH   BYTE   UNIT     EDATA          ?ED?DL1A_GET_MEASUREMENT_TIMING_BUDGET?DL1A
   *DEL*:           000003H   BYTE   UNIT     EDATA          ?ED?DL1A_SET_SIGNAL_RATE_LIMIT?DL1A
   *DEL*:           000003H   BYTE   UNIT     EDATA          ?ED?DL1A_GET_DISTANCE?DL1A
   *DEL*:           000012H   BYTE   UNIT     EDATA          ?ED?DL1A_INIT?DL1A
   *DEL*:           000068H   BYTE   INSEG    CODE           ?PR?DL1B_IIC_TRANSFER_8BIT_ARRAY?DL1B
   *DEL*:           0000F6H   BYTE   INSEG    CODE           ?PR?DL1B_GET_DISTANCE?DL1B
   *DEL*:           00000FH   BYTE   INSEG    CODE           ?PR?DL1B_SIMIIC_START?DL1B
   *DEL*:           000011H   BYTE   INSEG    CODE           ?PR?DL1B_SIMIIC_STOP?DL1B
   *DEL*:           0000EDH   BYTE   INSEG    CODE           ?PR?DL1B_INIT?DL1B
   *DEL*:           00000CH   BYTE   UNIT     EDATA          ?ED?DL1B_IIC_TRANSFER_8BIT_ARRAY?DL1B
   *DEL*:           000003H   BYTE   UNIT     EDATA          ?ED?DL1B_GET_DISTANCE?DL1B
   *DEL*:           000089H   BYTE   UNIT     EDATA          ?ED?DL1B_INIT?DL1B
   *DEL*:           000502H   BYTE   INSEG    CODE           ?PR?SFPRINT?FUNCTION
   *DEL*:           000132H   BYTE   INSEG    CODE           ?PR?FUNC_DOUBLE_TO_STR?FUNCTION
   *DEL*:           0000D4H   BYTE   INSEG    CODE           ?PR?FUNC_STR_TO_DOUBLE?FUNCTION
   *DEL*:           000092H   BYTE   INSEG    CODE           ?PR?NUMBER_CONVERSION_ASCII?FUNCTION
   *DEL*:           000132H   BYTE   INSEG    CODE           ?PR?FUNC_FLOAT_TO_STR?FUNCTION
   *DEL*:           0000D4H   BYTE   INSEG    CODE           ?PR?FUNC_STR_TO_FLOAT?FUNCTION
   *DEL*:           000015H   BYTE   INSEG    CODE           ?PR?FUNC_SOFT_DELAY?FUNCTION
   *DEL*:           00005DH   BYTE   INSEG    CODE           ?PR?FUNC_UINT_TO_STR?FUNCTION
   *DEL*:           000030H   BYTE   INSEG    CODE           ?PR?FUNC_STR_TO_UINT?FUNCTION
   *DEL*:           000077H   BYTE   INSEG    CODE           ?PR?FUNC_HEX_TO_STR?FUNCTION
   *DEL*:           00009EH   BYTE   INSEG    CODE           ?PR?FUNC_STR_TO_HEX?FUNCTION
   *DEL*:           000088H   BYTE   INSEG    CODE           ?PR?FUNC_INT_TO_STR?FUNCTION
   *DEL*:           000054H   BYTE   INSEG    CODE           ?PR?FUNC_STR_TO_INT?FUNCTION
   *DEL*:           000019H   BYTE   INSEG    CODE           ?PR?FUNC_GET_GREATEST_COMMON_DIVISOR?FUNCTION
   *DEL*:           00003EH   BYTE   INSEG    CODE           ?PR?PRINTF_REVERSE_ORDER?FUNCTION
   *DEL*:           000004H   BYTE   UNIT     EDATA          ?ED?FUNC_SOFT_DELAY?FUNCTION
   *DEL*:           000010H   BYTE   UNIT     EDATA          ?ED?FUNC_INT_TO_STR?FUNCTION
   *DEL*:           000010H   BYTE   UNIT     EDATA          ?ED?FUNC_UINT_TO_STR?FUNCTION
   *DEL*:           00001CH   BYTE   UNIT     EDATA          ?ED?FUNC_FLOAT_TO_STR?FUNCTION
   *DEL*:           00002AH   BYTE   UNIT     EDATA          ?ED?FUNC_DOUBLE_TO_STR?FUNCTION
   *DEL*:           00001CH   BYTE   UNIT     EDATA          ?ED?FUNC_HEX_TO_STR?FUNCTION
   *DEL*:           000001H   BYTE   UNIT     EDATA          ?ED?NUMBER_CONVERSION_ASCII?FUNCTION
   *DEL*:           00005FH   BYTE   UNIT     EDATA          ?ED?SFPRINT?FUNCTION
   *DEL*:           000012H   BYTE   INSEG    CODE           ?PR?ICM20602_GYRO_TRANSITION?ICM20602
   *DEL*:           000008H   BYTE   INSEG    CODE           ?PR?ICM20602_WRITE_REGISTER?ICM20602
   *DEL*:           00002DH   BYTE   INSEG    CODE           ?PR?ICM20602_SELF_CHECK?ICM20602
   *DEL*:           00000FH   BYTE   INSEG    CODE           ?PR?ICM20602_SIMSPI_W_REG_BYTE?ICM20602
   *DEL*:           000098H   BYTE   INSEG    CODE           ?PR?ICM20602_INIT?ICM20602
   *DEL*:           000040H   BYTE   INSEG    CODE           ?PR?ICM20602_GET_ACC?ICM20602
   *DEL*:           000010H   BYTE   INSEG    CODE           ?PR?ICM20602_ACC_TRANSITION?ICM20602
   *DEL*:           000010H   BYTE   INSEG    CODE           ?PR?ICM20602_READ_REGISTERS?ICM20602
   *DEL*:           000040H   BYTE   INSEG    CODE           ?PR?ICM20602_GET_GYRO?ICM20602
   *DEL*:           000006H   BYTE   UNIT     EDATA          ?ED?ICM20602_GET_ACC?ICM20602
   *DEL*:           000006H   BYTE   UNIT     EDATA          ?ED?ICM20602_GET_GYRO?ICM20602
   *DEL*:           000003H   BYTE   INSEG    CODE           ?PR?IMU963RA_ACC_TRANSITION?IMU963RA
   *DEL*:           000040H   BYTE   INSEG    CODE           ?PR?IMU963RA_GET_GYRO?IMU963RA
   *DEL*:           000012H   BYTE   INSEG    CODE           ?PR?IMU963RA_MAG_TRANSITION?IMU963RA
L251 LINKER/LOCATER V4.66.93.0                                                        03/08/2024  18:54:18  PAGE 9


   *DEL*:           000003H   BYTE   INSEG    CODE           ?PR?IMU963RA_GYRO_TRANSITION?IMU963RA
   *DEL*:           00002CH   BYTE   INSEG    CODE           ?PR?IMU963RA_CONNECT_MAG?IMU963RA
   *DEL*:           000010H   BYTE   INSEG    CODE           ?PR?IMU963RA_READ_ACC_GYRO_REGISTERS?IMU963RA
   *DEL*:           000061H   BYTE   INSEG    CODE           ?PR?IMU963RA_WRITE_MAG_REGISTER?IMU963RA
   *DEL*:           000030H   BYTE   INSEG    CODE           ?PR?IMU963RA_SIMSPI_R_REG_BYTES?IMU963RA
   *DEL*:           000030H   BYTE   INSEG    CODE           ?PR?IMU963RA_MAG_SELF_CHECK?IMU963RA
   *DEL*:           00010AH   BYTE   INSEG    CODE           ?PR?IMU963RA_INIT?IMU963RA
   *DEL*:           00002DH   BYTE   INSEG    CODE           ?PR?IMU963RA_ACC_GYRO_SELF_CHECK?IMU963RA
   *DEL*:           000040H   BYTE   INSEG    CODE           ?PR?IMU963RA_GET_ACC?IMU963RA
   *DEL*:           000056H   BYTE   INSEG    CODE           ?PR?IMU963RA_GET_MAG?IMU963RA
   *DEL*:           000004H   BYTE   UNIT     EDATA          ?ED?IMU963RA_SIMSPI_R_REG_BYTES?IMU963RA
   *DEL*:           000002H   BYTE   UNIT     EDATA          ?ED?IMU963RA_WRITE_MAG_REGISTER?IMU963RA
   *DEL*:           000006H   BYTE   UNIT     EDATA          ?ED?IMU963RA_GET_ACC?IMU963RA
   *DEL*:           000006H   BYTE   UNIT     EDATA          ?ED?IMU963RA_GET_GYRO?IMU963RA
   *DEL*:           000006H   BYTE   UNIT     EDATA          ?ED?IMU963RA_GET_MAG?IMU963RA
   *DEL*:           00007BH   BYTE   INSEG    CODE           ?PR?IPS114_SHOWUINT8_SIMSPI?IPS114_SPI
   *DEL*:           000077H   BYTE   INSEG    CODE           ?PR?IPS114_SHOWUINT8?IPS114_SPI
   *DEL*:           0000B9H   BYTE   INSEG    CODE           ?PR?IPS114_SHOWINT8_SIMSPI?IPS114_SPI
   *DEL*:           0000B5H   BYTE   INSEG    CODE           ?PR?IPS114_SHOWINT8?IPS114_SPI
   *DEL*:           0000F8H   BYTE   INSEG    CODE           ?PR?IPS114_SHOWFLOAT_SIMSPI?IPS114_SPI
   *DEL*:           000013H   BYTE   INSEG    CODE           ?PR?IPS114_DRAWPOINT_SIMSPI?IPS114_SPI
   *DEL*:           0000F8H   BYTE   INSEG    CODE           ?PR?IPS114_SHOWFLOAT?IPS114_SPI
   *DEL*:           000013H   BYTE   INSEG    CODE           ?PR?IPS114_DRAWPOINT?IPS114_SPI
   *DEL*:           00008EH   BYTE   INSEG    CODE           ?PR?IPS114_SHOWCHAR_SIMSPI?IPS114_SPI
   *DEL*:           00008EH   BYTE   INSEG    CODE           ?PR?IPS114_SHOWCHAR?IPS114_SPI
   *DEL*:           00008BH   BYTE   INSEG    CODE           ?PR?IPS114_SHOWUINT16_SIMSPI?IPS114_SPI
   *DEL*:           00008BH   BYTE   INSEG    CODE           ?PR?IPS114_SHOWUINT16?IPS114_SPI
   *DEL*:           000082H   BYTE   INSEG    CODE           ?PR?IPS114_SHOWINT32_SIMSPI?IPS114_SPI
   *DEL*:           0000DDH   BYTE   INSEG    CODE           ?PR?IPS114_SHOWINT16_SIMSPI?IPS114_SPI
   *DEL*:           000082H   BYTE   INSEG    CODE           ?PR?IPS114_SHOWINT32?IPS114_SPI
   *DEL*:           0000D9H   BYTE   INSEG    CODE           ?PR?IPS114_SHOWINT16?IPS114_SPI
   *DEL*:           00003CH   BYTE   INSEG    CODE           ?PR?IPS114_CLEAR_SIMSPI?IPS114_SPI
   *DEL*:           00003CH   BYTE   INSEG    CODE           ?PR?IPS114_CLEAR?IPS114_SPI
   *DEL*:           00004EH   BYTE   INSEG    CODE           ?PR?IPS114_SHOWSTR_SIMSPI?IPS114_SPI
   *DEL*:           00004EH   BYTE   INSEG    CODE           ?PR?IPS114_SHOWSTR?IPS114_SPI
   *DEL*:           000029H   BYTE   INSEG    CODE           ?PR?IPS114_WRITEDATA_SIMSPI?IPS114_SPI
   *DEL*:           00000AH   BYTE   INSEG    CODE           ?PR?IPS114_WRITEDATA?IPS114_SPI
   *DEL*:           000044H   BYTE   INSEG    CODE           ?PR?IPS114_SET_REGION_SIMSPI?IPS114_SPI
   *DEL*:           00014FH   BYTE   INSEG    CODE           ?PR?IPS114_INIT_SIMSPI?IPS114_SPI
   *DEL*:           000048H   BYTE   INSEG    CODE           ?PR?IPS114_SET_REGION?IPS114_SPI
   *DEL*:           000171H   BYTE   INSEG    CODE           ?PR?IPS114_INIT?IPS114_SPI
   *DEL*:           000004H   BYTE   UNIT     EDATA          ?ED?IPS114_SET_REGION_SIMSPI?IPS114_SPI
   *DEL*:           000002H   BYTE   UNIT     EDATA          ?ED?IPS114_CLEAR_SIMSPI?IPS114_SPI
   *DEL*:           000004H   BYTE   UNIT     EDATA          ?ED?IPS114_SHOWCHAR_SIMSPI?IPS114_SPI
   *DEL*:           000006H   BYTE   UNIT     EDATA          ?ED?IPS114_SHOWSTR_SIMSPI?IPS114_SPI
   *DEL*:           000005H   BYTE   UNIT     EDATA          ?ED?IPS114_SHOWINT8_SIMSPI?IPS114_SPI
   *DEL*:           000004H   BYTE   UNIT     EDATA          ?ED?IPS114_SHOWUINT8_SIMSPI?IPS114_SPI
   *DEL*:           000008H   BYTE   UNIT     EDATA          ?ED?IPS114_SHOWINT16_SIMSPI?IPS114_SPI
   *DEL*:           000006H   BYTE   UNIT     EDATA          ?ED?IPS114_SHOWUINT16_SIMSPI?IPS114_SPI
   *DEL*:           000028H   BYTE   UNIT     EDATA          ?ED?IPS114_SHOWINT32_SIMSPI?IPS114_SPI
   *DEL*:           00002BH   BYTE   UNIT     EDATA          ?ED?IPS114_SHOWFLOAT_SIMSPI?IPS114_SPI
   *DEL*:           000004H   BYTE   UNIT     EDATA          ?ED?IPS114_SET_REGION?IPS114_SPI
   *DEL*:           000002H   BYTE   UNIT     EDATA          ?ED?IPS114_CLEAR?IPS114_SPI
   *DEL*:           000004H   BYTE   UNIT     EDATA          ?ED?IPS114_SHOWCHAR?IPS114_SPI
   *DEL*:           000006H   BYTE   UNIT     EDATA          ?ED?IPS114_SHOWSTR?IPS114_SPI
   *DEL*:           000005H   BYTE   UNIT     EDATA          ?ED?IPS114_SHOWINT8?IPS114_SPI
   *DEL*:           000004H   BYTE   UNIT     EDATA          ?ED?IPS114_SHOWUINT8?IPS114_SPI
   *DEL*:           000008H   BYTE   UNIT     EDATA          ?ED?IPS114_SHOWINT16?IPS114_SPI
   *DEL*:           000006H   BYTE   UNIT     EDATA          ?ED?IPS114_SHOWUINT16?IPS114_SPI
   *DEL*:           000028H   BYTE   UNIT     EDATA          ?ED?IPS114_SHOWINT32?IPS114_SPI
   *DEL*:           00002BH   BYTE   UNIT     EDATA          ?ED?IPS114_SHOWFLOAT?IPS114_SPI
   *DEL*:           0000ABH   BYTE   INSEG    CODE           ?PR?IPS200_SHOW_FLOAT?IPS200_SPI
   *DEL*:           000017H   BYTE   INSEG    CODE           ?PR?IPS200_DRAW_POINT?IPS200_SPI
   *DEL*:           000078H   BYTE   INSEG    CODE           ?PR?IPS200_SHOW_STRING?IPS200_SPI
   *DEL*:           000160H   BYTE   INSEG    CODE           ?PR?IPS200_SHOW_CHAR?IPS200_SPI
L251 LINKER/LOCATER V4.66.93.0                                                        03/08/2024  18:54:18  PAGE 10


   *DEL*:           000009H   BYTE   INSEG    CODE           ?PR?IPS200_SET_COLOR?IPS200_SPI
   *DEL*:           0000E1H   BYTE   INSEG    CODE           ?PR?IPS200_SHOW_WAVE?IPS200_SPI
   *DEL*:           0001ABH   BYTE   INSEG    CODE           ?PR?IPS200_INIT_SPI?IPS200_SPI
   *DEL*:           000078H   BYTE   INSEG    CODE           ?PR?IPS200_SHOW_UINT?IPS200_SPI
   *DEL*:           000005H   BYTE   INSEG    CODE           ?PR?IPS200_SET_FONT?IPS200_SPI
   *DEL*:           000029H   BYTE   INSEG    CODE           ?PR?IPS200_SET_DIR?IPS200_SPI
   *DEL*:           00007AH   BYTE   INSEG    CODE           ?PR?IPS200_SHOW_INT?IPS200_SPI
   *DEL*:           00000AH   BYTE   INSEG    CODE           ?PR?IPS200_WRITE_8BIT_DATA?IPS200_SPI
   *DEL*:           0000FBH   BYTE   INSEG    CODE           ?PR?IPS200_SHOW_CHINESE?IPS200_SPI
   *DEL*:           00003FH   BYTE   INSEG    CODE           ?PR?IPS200_CLEAR?IPS200_SPI
   *DEL*:           000049H   BYTE   INSEG    CODE           ?PR?IPS200_FULL?IPS200_SPI
   *DEL*:           000038H   BYTE   INSEG    CODE           ?PR?IPS200_SET_REGION?IPS200_SPI
   *DEL*:           00014EH   BYTE   INSEG    CODE           ?PR?IPS200_DRAW_LINE?IPS200_SPI
   *DEL*:           000004H   BYTE   UNIT     EDATA          ?ED?IPS200_SET_REGION?IPS200_SPI
   *DEL*:           000002H   BYTE   UNIT     EDATA          ?ED?IPS200_FULL?IPS200_SPI
   *DEL*:           000012H   BYTE   UNIT     EDATA          ?ED?IPS200_DRAW_LINE?IPS200_SPI
   *DEL*:           000005H   BYTE   UNIT     EDATA          ?ED?IPS200_SHOW_CHAR?IPS200_SPI
   *DEL*:           000006H   BYTE   UNIT     EDATA          ?ED?IPS200_SHOW_STRING?IPS200_SPI
   *DEL*:           000016H   BYTE   UNIT     EDATA          ?ED?IPS200_SHOW_INT?IPS200_SPI
   *DEL*:           000016H   BYTE   UNIT     EDATA          ?ED?IPS200_SHOW_UINT?IPS200_SPI
   *DEL*:           00001CH   BYTE   UNIT     EDATA          ?ED?IPS200_SHOW_FLOAT?IPS200_SPI
   *DEL*:           00001CH   BYTE   UNIT     EDATA          ?ED?IPS200_SHOW_WAVE?IPS200_SPI
   *DEL*:           000011H   BYTE   UNIT     EDATA          ?ED?IPS200_SHOW_CHINESE?IPS200_SPI
   *DEL*:           000055H   BYTE   INSEG    CODE           ?PR?MPU6050_SIMIIC_READ_REGS?MPU6050
   *DEL*:           000029H   BYTE   INSEG    CODE           ?PR?MPU6050_SIMIIC_READ_REG?MPU6050
   *DEL*:           000022H   BYTE   INSEG    CODE           ?PR?MPU6050_SIMIIC_WRITE_REG?MPU6050
   *DEL*:           00005CH   BYTE   INSEG    CODE           ?PR?MPU6050_INIT?MPU6050
   *DEL*:           000032H   BYTE   INSEG    CODE           ?PR?MPU6050_SELF1_CHECK?MPU6050
   *DEL*:           00003BH   BYTE   INSEG    CODE           ?PR?MPU6050_READ_CH?MPU6050
   *DEL*:           00002EH   BYTE   INSEG    CODE           ?PR?MPU6050_SEND_CH?MPU6050
   *DEL*:           000040H   BYTE   INSEG    CODE           ?PR?MPU6050_GET_GYRO?MPU6050
   *DEL*:           00001CH   BYTE   INSEG    CODE           ?PR?MPU6050_SCCB_WAITACK?MPU6050
   *DEL*:           000040H   BYTE   INSEG    CODE           ?PR?MPU6050_GET_ACCDATA?MPU6050
   *DEL*:           000003H   BYTE   UNIT     EDATA          ?ED?MPU6050_SIMIIC_READ_REGS?MPU6050
   *DEL*:           000006H   BYTE   UNIT     EDATA          ?ED?MPU6050_GET_ACCDATA?MPU6050
   *DEL*:           000006H   BYTE   UNIT     EDATA          ?ED?MPU6050_GET_GYRO?MPU6050
   *DEL*:           000033H   BYTE   INSEG    CODE           ?PR?OLED_PUTPIXEL?OLED
   *DEL*:           000032H   BYTE   INSEG    CODE           ?PR?OLED_HEXASCII_SPI?OLED
   *DEL*:           000325H   BYTE   INSEG    CODE           ?PR?OLED_DIS_BMP_SPI?OLED
   *DEL*:           0000F8H   BYTE   INSEG    CODE           ?PR?OLED_PRINTF_FLOAT?OLED
   *DEL*:           0000E8H   BYTE   INSEG    CODE           ?PR?OLED_P8X16STR_SPI?OLED
   *DEL*:           00002AH   BYTE   INSEG    CODE           ?PR?OLED_CLRPIXEL_SPI?OLED
   *DEL*:           000090H   BYTE   INSEG    CODE           ?PR?OLED_PRINT_CHINESE_SPI?OLED
   *DEL*:           000033H   BYTE   INSEG    CODE           ?PR?OLED_FILL?OLED
   *DEL*:           000082H   BYTE   INSEG    CODE           ?PR?OLED_PRINTF_INT32?OLED
   *DEL*:           00001DH   BYTE   INSEG    CODE           ?PR?OLED_UINT16?OLED
   *DEL*:           000031H   BYTE   INSEG    CODE           ?PR?OLED_PUTPIXEL_SPI?OLED
   *DEL*:           0000A9H   BYTE   INSEG    CODE           ?PR?OLED_P6X8STR?OLED
   *DEL*:           00004BH   BYTE   INSEG    CODE           ?PR?OLED_INT16?OLED
   *DEL*:           0000A3H   BYTE   INSEG    CODE           ?PR?OLED_INIT?OLED
   *DEL*:           0000F8H   BYTE   INSEG    CODE           ?PR?OLED_PRINTF_FLOAT_SPI?OLED
   *DEL*:           000032H   BYTE   INSEG    CODE           ?PR?OLED_HEXASCII?OLED
   *DEL*:           000033H   BYTE   INSEG    CODE           ?PR?OLED_FILL_SPI?OLED
   *DEL*:           000082H   BYTE   INSEG    CODE           ?PR?OLED_PRINTF_INT32_SPI?OLED
   *DEL*:           00001DH   BYTE   INSEG    CODE           ?PR?OLED_UINT16_SPI?OLED
   *DEL*:           0000A9H   BYTE   INSEG    CODE           ?PR?OLED_P6X8STR_SPI?OLED
   *DEL*:           00004BH   BYTE   INSEG    CODE           ?PR?OLED_INT16_SPI?OLED
   *DEL*:           00033BH   BYTE   INSEG    CODE           ?PR?OLED_DIS_BMP?OLED
   *DEL*:           0000BFH   BYTE   INSEG    CODE           ?PR?OLED_INIT_SPI?OLED
   *DEL*:           0000E8H   BYTE   INSEG    CODE           ?PR?OLED_P8X16STR?OLED
   *DEL*:           00002CH   BYTE   INSEG    CODE           ?PR?OLED_CLRPIXEL?OLED
   *DEL*:           000090H   BYTE   INSEG    CODE           ?PR?OLED_PRINT_CHINESE?OLED
   *DEL*:           000005H   BYTE   UNIT     EDATA          ?ED?OLED_P6X8STR?OLED
   *DEL*:           000005H   BYTE   UNIT     EDATA          ?ED?OLED_P8X16STR?OLED
   *DEL*:           000007H   BYTE   UNIT     EDATA          ?ED?OLED_UINT16?OLED
L251 LINKER/LOCATER V4.66.93.0                                                        03/08/2024  18:54:18  PAGE 11


   *DEL*:           000007H   BYTE   UNIT     EDATA          ?ED?OLED_INT16?OLED
   *DEL*:           000028H   BYTE   UNIT     EDATA          ?ED?OLED_PRINTF_INT32?OLED
   *DEL*:           00002BH   BYTE   UNIT     EDATA          ?ED?OLED_PRINTF_FLOAT?OLED
   *DEL*:           00000CH   BYTE   UNIT     EDATA          ?ED?OLED_DIS_BMP?OLED
   *DEL*:           00000AH   BYTE   UNIT     EDATA          ?ED?OLED_PRINT_CHINESE?OLED
   *DEL*:           000005H   BYTE   UNIT     EDATA          ?ED?OLED_P6X8STR_SPI?OLED
   *DEL*:           000005H   BYTE   UNIT     EDATA          ?ED?OLED_P8X16STR_SPI?OLED
   *DEL*:           000007H   BYTE   UNIT     EDATA          ?ED?OLED_UINT16_SPI?OLED
   *DEL*:           000007H   BYTE   UNIT     EDATA          ?ED?OLED_INT16_SPI?OLED
   *DEL*:           000028H   BYTE   UNIT     EDATA          ?ED?OLED_PRINTF_INT32_SPI?OLED
   *DEL*:           00002BH   BYTE   UNIT     EDATA          ?ED?OLED_PRINTF_FLOAT_SPI?OLED
   *DEL*:           00000CH   BYTE   UNIT     EDATA          ?ED?OLED_DIS_BMP_SPI?OLED
   *DEL*:           00000AH   BYTE   UNIT     EDATA          ?ED?OLED_PRINT_CHINESE_SPI?OLED
   *DEL*:           000070H   BYTE   INSEG    CODE           ?PR?CCD_SEND_DATA?TSL1401
   *DEL*:           000021H   BYTE   INSEG    CODE           ?PR?CCD_INIT?TSL1401
   *DEL*:           000046H   BYTE   INSEG    CODE           ?PR?CCD_COLLECT?TSL1401
   *DEL*:           000003H   BYTE   UNIT     EDATA          ?ED?CCD_SEND_DATA?TSL1401
   *DEL*:           00003AH   BYTE   INSEG    CODE           ?PR?CRC_CHECK?VIRSCO
   *DEL*:           000069H   BYTE   INSEG    CODE           ?PR?DATA_CONVERSION?VIRSCO
   *DEL*:           000004H   BYTE   UNIT     EDATA          ?ED?DATA_CONVERSION?VIRSCO
   *DEL*:           000022H   BYTE   INSEG    CODE           ?PR?WIRELESS_UART_READ_BUFF?WIRELESS
   *DEL*:           00005DH   BYTE   INSEG    CODE           ?PR?WIRELESS_UART_SEND_BUFF?WIRELESS
   *DEL*:           00003CH   BYTE   INSEG    CODE           ?PR?WIRELESS_UART_INIT?WIRELESS
   *DEL*:           00001EH   BYTE   INSEG    CODE           ?PR?WIRELESS_UART_SEND_BYTE?WIRELESS
   *DEL*:           000001H   BYTE   UNIT     EDATA          ?ED?WIRELESS_UART_SEND_BYTE?WIRELESS
   *DEL*:           000004H   BYTE   UNIT     EDATA          ?ED?WIRELESS_UART_SEND_BUFF?WIRELESS
   *DEL*:           000004H   BYTE   UNIT     EDATA          ?ED?WIRELESS_UART_READ_BUFF?WIRELESS
   *DEL*:           000022H   BYTE   INSEG    CODE           ?PR?WIRELESS_CH573_READ_BUFF?WIRELESS_CH573
   *DEL*:           000067H   BYTE   INSEG    CODE           ?PR?WIRELESS_CH573_SEND_BUFF?WIRELESS_CH573
   *DEL*:           000019H   BYTE   INSEG    CODE           ?PR?WIRELESS_CH573_CALLBACK?WIRELESS_CH573
   *DEL*:           00003CH   BYTE   INSEG    CODE           ?PR?WIRELESS_CH573_INIT?WIRELESS_CH573
   *DEL*:           000002H   BYTE   UNIT     EDATA          ?ED?WIRELESS_CH573_SEND_BUFF?WIRELESS_CH573
   *DEL*:           000004H   BYTE   UNIT     EDATA          ?ED?WIRELESS_CH573_READ_BUFF?WIRELESS_CH573
   *DEL*:           000017H   BYTE   INSEG    CODE           ?PR?ASSISTANT_SUM?ASSISTANT
   *DEL*:           0000F7H   BYTE   INSEG    CODE           ?PR?ASSISTANT_DATA_ANALYSIS?ASSISTANT
   *DEL*:           0000A9H   BYTE   INSEG    CODE           ?PR?ASSISTANT_OSCILLOSCOPE_SEND?ASSISTANT
   *DEL*:           000013H   BYTE   INSEG    CODE           ?PR?ASSISTANT_INIT?ASSISTANT
   *DEL*:           000024H   BYTE   UNIT     EDATA          ?ED?ASSISTANT_OSCILLOSCOPE_SEND?ASSISTANT
   *DEL*:           000085H   BYTE   UNIT     EDATA          ?ED?ASSISTANT_DATA_ANALYSIS?ASSISTANT
   *DEL*:           000004H   BYTE   UNIT     CODE           ?PR?FPADD?STC32F_FPMU
   *DEL*:           000004H   BYTE   UNIT     CODE           ?PR?FPSUB?STC32F_FPMU
   *DEL*:           000004H   BYTE   UNIT     CODE           ?PR?FPMUL?STC32F_FPMU
   *DEL*:           000004H   BYTE   UNIT     CODE           ?PR?FPDIV?STC32F_FPMU
   *DEL*:           000004H   BYTE   UNIT     CODE           ?PR?SQRT?STC32F_FPMU
   *DEL*:           00000CH   BYTE   UNIT     CODE           ?PR?FPCMP?STC32F_FPMU
   *DEL*:           000006H   BYTE   UNIT     CODE           ?PR?FXAM?STC32F_FPMU
   *DEL*:           000007H   BYTE   UNIT     CODE           ?PR?FCHS?STC32F_FPMU
   *DEL*:           000007H   BYTE   UNIT     CODE           ?PR?FABS?STC32F_FPMU
   *DEL*:           000004H   BYTE   UNIT     CODE           ?PR?SIN?STC32F_FPMU
   *DEL*:           000004H   BYTE   UNIT     CODE           ?PR?COS?STC32F_FPMU
   *DEL*:           000004H   BYTE   UNIT     CODE           ?PR?TAN?STC32F_FPMU
   *DEL*:           00000AH   BYTE   UNIT     CODE           ?PR?ATAN?STC32F_FPMU
   *DEL*:           000006H   BYTE   UNIT     CODE           ?PR?CASTF?STC32F_FPMU
   *DEL*:           000006H   BYTE   UNIT     CODE           ?PR?FCASTC?STC32F_FPMU
   *DEL*:           000006H   BYTE   UNIT     CODE           ?PR?FCASTI?STC32F_FPMU
   *DEL*:           000004H   BYTE   UNIT     CODE           ?PR?FCASTL?STC32F_FPMU
   *DEL*:           000004H   BYTE   UNIT     CODE           ?PR?FCLEX?STC32F_FPMU
   *DEL*:           000004H   BYTE   UNIT     CODE           ?PR?FINIT?STC32F_FPMU
   *DEL*:           000006H   BYTE   UNIT     CODE           ?PR?FPSRR?STC32F_FPMU
   *DEL*:           000006H   BYTE   UNIT     CODE           ?PR?FPSRW?STC32F_FPMU
   *DEL*:           000006H   BYTE   UNIT     CODE           ?PR?FPCRR?STC32F_FPMU
   *DEL*:           000006H   BYTE   UNIT     CODE           ?PR?FPCRW?STC32F_FPMU
   *DEL*:           000028H   BYTE   UNIT     EDATA          ?ED?PRINTF
   *DEL*:           00000EH   BYTE   INSEG    CODE           ?PR?STRLEN?_?STRLEN
   *DEL*:           00001AH   BYTE   INSEG    CODE           ?PR?MEMSET?_?MEMSET
L251 LINKER/LOCATER V4.66.93.0                                                        03/08/2024  18:54:18  PAGE 12





OVERLAY MAP OF MODULE:   .\Out_flie\TestProject (board)


FUNCTION/MODULE                               EDATA_GROUP
--> CALLED FUNCTION/MODULE                    START  STOP
=========================================================
UART1_Isr/isr                                 ----- -----

*** NEW ROOT ********************************

UART2_Isr/isr                                 ----- -----

*** NEW ROOT ********************************

UART3_Isr/isr                                 ----- -----

*** NEW ROOT ********************************

UART4_Isr/isr                                 ----- -----
  +--> wireless_uart_callback/WIRELESS
  +--> bluetooth_ch9141_uart_callback/BLUETOOTH_CH9141

wireless_uart_callback/WIRELESS               ----- -----
  +--> fifo_write_buffer/fifo

fifo_write_buffer/fifo                        03F2H 03FDH
  +--> memcpy?_/memcpy
  +--> fifo_head_offset/fifo

memcpy?_/memcpy                               ----- -----

fifo_head_offset/fifo                         ----- -----

bluetooth_ch9141_uart_callback/BLUETOOTH+     ----- -----
... _CH9141
  +--> fifo_write_buffer/fifo

*** NEW ROOT ********************************

INT0_Isr/isr                                  ----- -----

*** NEW ROOT ********************************

INT1_Isr/isr                                  ----- -----

*** NEW ROOT ********************************

INT2_Isr/isr                                  ----- -----

*** NEW ROOT ********************************

INT3_Isr/isr                                  ----- -----

*** NEW ROOT ********************************

INT4_Isr/isr                                  ----- -----

*** NEW ROOT ********************************

TM0_Isr/isr                                   ----- -----

*** NEW ROOT ********************************
L251 LINKER/LOCATER V4.66.93.0                                                        03/08/2024  18:54:18  PAGE 13



TM1_Isr/isr                                   ----- -----

*** NEW ROOT ********************************

TM2_Isr/isr                                   ----- -----

*** NEW ROOT ********************************

TM3_Isr/isr                                   ----- -----

*** NEW ROOT ********************************

TM4_Isr/isr                                   ----- -----

*** NEW ROOT ********************************

?C_C51STARTUP                                 ----- -----

*** NEW ROOT ********************************

?C_C51STARTUP?3                               ----- -----
  +--> main/main

main/main                                     ----- -----
  +--> clock_init/board
  +--> board_init/board
  +--> gpio_mode/gpio
  +--> delay_ms/delay

clock_init/board                              ----- -----
  +--> set_clk/board

set_clk/board                                 ----- -----

board_init/board                              ----- -----
  +--> delay_init/delay
  +--> ICacheOn/board
  +--> uart_init/uart
  +--> EnableGlobalIRQ/board

delay_init/delay                              ----- -----
  +--> ?C?SLDIV/?C?SLDIV

?C?SLDIV/?C?SLDIV                             ----- -----
  +--> ?C?ULIDIV/?C?ULDIV

?C?ULIDIV/?C?ULDIV                            ----- -----

ICacheOn/board                                ----- -----

uart_init/uart                                03FEH 0403H
  +--> ?C?ULIDIV/?C?ULDIV

EnableGlobalIRQ/board                         ----- -----

gpio_mode/gpio                                ----- -----

delay_ms/delay                                03FEH 03FFH

*** NEW ROOT ********************************

?C_C51STARTUP?2                               ----- -----


L251 LINKER/LOCATER V4.66.93.0                                                        03/08/2024  18:54:18  PAGE 14



PUBLIC SYMBOLS OF MODULE:  .\Out_flie\TestProject (board)


      VALUE       CLASS    TYPE      PUBLIC SYMBOL NAME
      =================================================
      00FF3DFAH   CODE     ---       ?C?BMOVENP
      00FF3DF8H   CODE     ---       ?C?BMOVENP8
*DEL*:00000000H   CODE     ---       ?C?CASTF
      000000FFH   NUMBER   ---       ?C?CODESEG
*DEL*:00000000H   CODE     ---       ?C?FCASTC
*DEL*:00000000H   CODE     ---       ?C?FCASTI
*DEL*:00000000H   CODE     ---       ?C?FCASTL
*DEL*:00000000H   CODE     ---       ?C?FPADD
*DEL*:00000000H   CODE     ---       ?C?FPCMP3
      00FF3BC3H   CODE     ---       ?C?FPCONVERT
*DEL*:00000000H   CODE     ---       ?C?FPDIV
*DEL*:00000000H   CODE     ---       ?C?FPMUL
*DEL*:00000000H   CODE     ---       ?C?FPNEG
      00FF3C7BH   CODE     ---       ?C?FPROUND
*DEL*:00000000H   CODE     ---       ?C?FPSUB
      00FF3CEEH   CODE     ---       ?C?FTNPWR
      00FF4D9CH   CODE     ---       ?C?INITEDATA
      00FF55E8H   HCONST   WORD      ?C?INITEDATA_END
      00FF3D68H   CODE     ---       ?C?LIMUL
      00FF3D57H   CODE     ---       ?C?LMUL
      00FF37A6H   CODE     ---       ?C?PRNFMT
      00FF3D25H   CODE     ---       ?C?SIDIV
      00FF3DC4H   CODE     NEAR LAB  ?C?SLDIV
      00FF0000H   CODE     ---       ?C?STARTUP
      00FF3D73H   CODE     NEAR LAB  ?C?ULDIV
      00FF3D71H   CODE     NEAR LAB  ?C?ULIDIV
      00000001H   NUMBER   ---       ?C?XDATASEG
      00FF0000H   CODE     ---       ?C_STARTUP
*DEL*:1FFFFFF8H   EDATA    BYTE      ?data_conversion?BYTE
*DEL*:1FFFFFFCH   EDATA    BYTE      ?dl1b_iic_transfer_8bit_array?BYTE
*DEL*:1FFFFFF8H   EDATA    BYTE      ?fifo_init?BYTE
*DEL*:1FFFFFFCH   EDATA    BYTE      ?fifo_read_buffer?BYTE
      000003EEH   EDATA    BYTE      ?fifo_write_buffer?BYTE
*DEL*:1FFFFFFCH   EDATA    BYTE      ?iap_read_bytes?BYTE
*DEL*:1FFFFFFCH   EDATA    BYTE      ?iap_write_bytes?BYTE
*DEL*:1FFFFFFAH   EDATA    BYTE      ?iic_init?BYTE
*DEL*:1FFFFFFCH   EDATA    BYTE      ?ips114_showfloat?BYTE
*DEL*:1FFFFFFCH   EDATA    BYTE      ?ips114_showfloat_simspi?BYTE
*DEL*:1FFFFFFCH   EDATA    BYTE      ?ips200_draw_line?BYTE
*DEL*:1FFFFFF8H   EDATA    BYTE      ?ips200_show_chinese?BYTE
*DEL*:1FFFFFF9H   EDATA    BYTE      ?ips200_show_float?BYTE
*DEL*:1FFFFFFCH   EDATA    BYTE      ?ips200_show_wave?BYTE
*DEL*:1FFFFFFCH   EDATA    BYTE      ?lcd_showfloat?BYTE
*DEL*:1FFFFFFCH   EDATA    BYTE      ?lcd_showfloat_simspi?BYTE
*DEL*:1FFFFFFCH   EDATA    BYTE      ?oled_printf_float?BYTE
*DEL*:1FFFFFFCH   EDATA    BYTE      ?oled_printf_float_spi?BYTE
*DEL*:00000028H   EDATA    ---       ?printf?BYTE
*DEL*:1FFFFFFAH   EDATA    BYTE      ?pwm_freq?BYTE
*DEL*:1FFFFFFEH   EDATA    BYTE      ?pwm_init?BYTE
*DEL*:00000028H   EDATA    BYTE      ?sfprint?BYTE
*DEL*:1FFFFFFAH   EDATA    BYTE      ?spi_init?BYTE
      000003F8H   EDATA    BYTE      ?uart_init?BYTE
*DEL*:1FFFFFFCH   EDATA    BYTE      ?uart_putbuff?BYTE
*SFR* 000000E0H   DATA     BYTE      ACC
*SFR* 000000BCH   DATA     BYTE      ADC_CONTR
*DEL*:00000000H   CODE     ---       adc_init
*DEL*:00000000H   CODE     ---       adc_once
*SFR* 000000BDH   DATA     BYTE      ADC_RES
*SFR* 000000BEH   DATA     BYTE      ADC_RESL
L251 LINKER/LOCATER V4.66.93.0                                                        03/08/2024  18:54:18  PAGE 15


*SFR* 000000DEH   DATA     BYTE      ADCCFG
      00FF32FDH   CODE     ---       ascii_font_6x8
      00FF212DH   CODE     ---       ascii_font_8x16
*DEL*:00000000H   CODE     ---       assistant_data_analysis
*DEL*:00000000H   CODE     ---       assistant_init
      000002A9H   EDATA    ---       assistant_oscilloscope_data
*DEL*:00000000H   CODE     ---       assistant_oscilloscope_send
      00000209H   EDATA    ---       assistant_parameter
      00000462H   EDATA    ---       assistant_receive
      00000464H   EDATA    ---       assistant_transfer
*DEL*:00000000H   CODE     ---       at24c02_read_byte
*DEL*:00000000H   CODE     ---       at24c02_read_bytes
*DEL*:00000000H   CODE     ---       at24c02_write_byte
*DEL*:00000000H   CODE     ---       at24c02_write_bytes
*DEL*:00000000H   CODE     ---       ATAN?_
*SFR* 000000EFH   DATA     BYTE      AUXINTIF
*SFR* 0000008EH   DATA     BYTE      AUXR
*SFR* 00000097H   DATA     BYTE      AUXR2
*DEL*:00000000H   CODE     ---       bluetooth_ch9141_init
*DEL*:00000000H   CODE     ---       bluetooth_ch9141_read_buff
*DEL*:00000000H   CODE     ---       bluetooth_ch9141_send_buff
      00FF5375H   CODE     ---       bluetooth_ch9141_uart_callback
      00FF49FBH   CODE     ---       board_init
      00000440H   EDATA    ---       busy
*SFR* 000000F1H   DATA     BYTE      CANICR
*DEL*:00000000H   CODE     ---       ccd_collect
      00000009H   EDATA    ---       ccd_data_ch1
      00000109H   EDATA    ---       ccd_data_ch2
*DEL*:00000000H   CODE     ---       ccd_init
*DEL*:00000000H   CODE     ---       ccd_send_data
      00FF54B9H   CODE     ---       clock_init
*SFR* 000000E6H   DATA     BYTE      CMPCR1
*SFR* 000000E7H   DATA     BYTE      CMPCR2
*DEL*:00000000H   CODE     ---       COS?_
*DEL*:00000000H   CODE     ---       CRC_CHECK
*DEL*:00000000H   CODE     ---       ctimer_count_clean
*DEL*:00000000H   CODE     ---       ctimer_count_init
*DEL*:00000000H   CODE     ---       ctimer_count_read
*DEL*:00000000H   CODE     ---       data_conversion
      00FF515FH   CODE     ---       delay_init
      00FF528CH   CODE     ---       delay_ms
      00FF535CH   CODE     ---       delay_us
*DEL*:00000000H   CODE     ---       DisableGlobalIRQ
*DEL*:00000000H   CODE     ---       disalbe_icache
      00000466H   EDATA    WORD      dl1a_distance_mm
      00000468H   EDATA    BYTE      dl1a_finsh_flag
*DEL*:00000000H   CODE     ---       dl1a_get_distance
*DEL*:00000000H   CODE     ---       dl1a_init
      00FF00A6H   CODE     ---       dl1b_default_configuration
      0000045AH   EDATA    WORD      dl1b_distance_mm
      0000045CH   EDATA    BYTE      dl1b_finsh_flag
*DEL*:00000000H   CODE     ---       dl1b_get_distance
*DEL*:00000000H   CODE     ---       dl1b_iic_transfer_8bit_array
*DEL*:00000000H   CODE     ---       dl1b_init
      0000045DH   EDATA    BYTE      dl1b_init_flag
*SFR* 000000EDH   DATA     BYTE      DMAIR
*SFR* 00000083H   DATA     BYTE      DPH
*SFR* 00000082H   DATA     BYTE      DPL
*SFR* 000000A8H.7 DATA     BIT       EA
*DEL*:00000000H   CODE     ---       eeprom_trig
      00FF000EH   CODE     ---       EnableGlobalIRQ
*DEL*:00000000H   CODE     ---       enalbe_icache
*DEL*:00000000H   CODE     ---       encoder_angle_simspi
*DEL*:00000000H   CODE     ---       encoder_angle_spi
      00FF0006H   CODE     ---       encoder_delay_us
L251 LINKER/LOCATER V4.66.93.0                                                        03/08/2024  18:54:18  PAGE 16


*DEL*:00000000H   CODE     ---       encoder_init_simspi
*DEL*:00000000H   CODE     ---       encoder_init_spi
*DEL*:00000000H   CODE     ---       encoder_self4_check
*DEL*:00000000H   CODE     ---       encoder_self5_check
*DEL*:00000000H   CODE     ---       encoder_simspi_r_reg_byte
*DEL*:00000000H   CODE     ---       encoder_simspi_w_reg_byte
*DEL*:00000000H   CODE     ---       encoder_spi_r_reg_byte
*DEL*:00000000H   CODE     ---       encoder_spi_w_reg_byte
*SFR* 000000A8H.4 DATA     BIT       ES
*SFR* 000000A8H.1 DATA     BIT       ET0
*SFR* 000000A8H.3 DATA     BIT       ET1
*SFR* 000000A8H.0 DATA     BIT       EX0
*SFR* 000000A8H.2 DATA     BIT       EX1
*DEL*:00000000H   CODE     ---       exit_init
*SFR* 000000D0H.5 DATA     BIT       F0
*DEL*:00000000H   CODE     ---       FABS?_
*DEL*:00000000H   CODE     ---       FCLEX
*DEL*:00000000H   CODE     ---       fifo_clear
*DEL*:00000000H   CODE     ---       fifo_end_offset
      00FF4D47H   CODE     ---       fifo_head_offset
*DEL*:00000000H   CODE     ---       fifo_init
*DEL*:00000000H   CODE     ---       fifo_read_buffer
*DEL*:00000000H   CODE     ---       fifo_used
      00FF4840H   CODE     ---       fifo_write_buffer
*DEL*:00000000H   CODE     ---       FINIT
*DEL*:00000000H   CODE     ---       FPCRR
*DEL*:00000000H   CODE     ---       FPCRW
*DEL*:00000000H   CODE     ---       FPSRR
*DEL*:00000000H   CODE     ---       FPSRW
*DEL*:00000000H   CODE     ---       func_double_to_str
*DEL*:00000000H   CODE     ---       func_float_to_str
*DEL*:00000000H   CODE     ---       func_get_greatest_common_divisor
*DEL*:00000000H   CODE     ---       func_hex_to_str
*DEL*:00000000H   CODE     ---       func_int_to_str
*DEL*:00000000H   CODE     ---       func_soft_delay
*DEL*:00000000H   CODE     ---       func_str_to_double
*DEL*:00000000H   CODE     ---       func_str_to_float
*DEL*:00000000H   CODE     ---       func_str_to_hex
*DEL*:00000000H   CODE     ---       func_str_to_int
*DEL*:00000000H   CODE     ---       func_str_to_uint
*DEL*:00000000H   CODE     ---       func_uint_to_str
*DEL*:00000000H   CODE     ---       FXAM
      00FF428AH   CODE     ---       gpio_mode
*DEL*:00000000H   CODE     ---       gpio_pull_set
*SFR* 000000F6H   DATA     BYTE      IAP_ADDRE
*SFR* 000000C3H   DATA     BYTE      IAP_ADDRH
*SFR* 000000C4H   DATA     BYTE      IAP_ADDRL
*SFR* 000000C5H   DATA     BYTE      IAP_CMD
*SFR* 000000C7H   DATA     BYTE      IAP_CONTR
*SFR* 000000C2H   DATA     BYTE      IAP_DATA
*DEL*:00000000H   CODE     ---       iap_erase_page
*DEL*:00000000H   CODE     ---       iap_get_cmd_state
*DEL*:00000000H   CODE     ---       iap_idle
*DEL*:00000000H   CODE     ---       iap_init
*DEL*:00000000H   CODE     ---       iap_read_bytes
*DEL*:00000000H   CODE     ---       iap_set_tps
*SFR* 000000F5H   DATA     BYTE      IAP_TPS
*SFR* 000000C6H   DATA     BYTE      IAP_TRIG
*DEL*:00000000H   CODE     ---       iap_write_bytes
      00FF5482H   CODE     ---       ICacheOn
*SFR* 000000F7H   DATA     BYTE      ICHECR
*DEL*:00000000H   CODE     ---       icm20602_acc_transition
      00000412H   EDATA    INT       icm20602_acc_x
      00000414H   EDATA    INT       icm20602_acc_y
      00000416H   EDATA    INT       icm20602_acc_z
L251 LINKER/LOCATER V4.66.93.0                                                        03/08/2024  18:54:18  PAGE 17


*DEL*:00000000H   CODE     ---       icm20602_get_acc
*DEL*:00000000H   CODE     ---       icm20602_get_gyro
*DEL*:00000000H   CODE     ---       icm20602_gyro_transition
      00000418H   EDATA    INT       icm20602_gyro_x
      0000041AH   EDATA    INT       icm20602_gyro_y
      0000041CH   EDATA    INT       icm20602_gyro_z
*DEL*:00000000H   CODE     ---       icm20602_init
*SFR* 000000A8H   DATA     BYTE      IE
*SFR* 000000AFH   DATA     BYTE      IE2
*DEL*:00000000H   CODE     ---       iic_change_pin
      00FF53D7H   CODE     ---       iic_delay_us
*DEL*:00000000H   CODE     ---       iic_init
*DEL*:00000000H   CODE     ---       iic_read_reg
*DEL*:00000000H   CODE     ---       iic_read_reg_bytes
*DEL*:00000000H   CODE     ---       iic_write_reg
      00FF012DH   CODE     ---       imu660ra_config_file
*DEL*:00000000H   CODE     ---       imu963ra_acc_transition
      000003E0H   EDATA    INT       imu963ra_acc_x
      000003E2H   EDATA    INT       imu963ra_acc_y
      000003E4H   EDATA    INT       imu963ra_acc_z
*DEL*:00000000H   CODE     ---       imu963ra_get_acc
*DEL*:00000000H   CODE     ---       imu963ra_get_gyro
*DEL*:00000000H   CODE     ---       imu963ra_get_mag
*DEL*:00000000H   CODE     ---       imu963ra_gyro_transition
      000003ECH   EDATA    INT       imu963ra_gyro_x
      000003EEH   EDATA    INT       imu963ra_gyro_y
      000003F0H   EDATA    INT       imu963ra_gyro_z
*DEL*:00000000H   CODE     ---       imu963ra_init
*DEL*:00000000H   CODE     ---       imu963ra_mag_transition
      000003E6H   EDATA    INT       imu963ra_mag_x
      000003E8H   EDATA    INT       imu963ra_mag_y
      000003EAH   EDATA    INT       imu963ra_mag_z
      00FF554EH   CODE     ---       INT0_Isr
      00FF0011H   CODE     ---       INT1_Isr
      00FF5516H   CODE     ---       INT2_Isr
      00FF551EH   CODE     ---       INT3_Isr
      00FF5526H   CODE     ---       INT4_Isr
*SFR* 0000008FH   DATA     BYTE      INTCLKO
*SFR* 000000B8H   DATA     BYTE      IP
*SFR* 000000B5H   DATA     BYTE      IP2
*SFR* 000000B6H   DATA     BYTE      IP2H
*SFR* 000000DFH   DATA     BYTE      IP3
*SFR* 000000EEH   DATA     BYTE      IP3H
*SFR* 000000B7H   DATA     BYTE      IPH
*DEL*:00000000H   CODE     ---       ips114_clear
*DEL*:00000000H   CODE     ---       ips114_clear_simspi
*DEL*:00000000H   CODE     ---       ips114_drawpoint
*DEL*:00000000H   CODE     ---       ips114_drawpoint_simspi
*DEL*:00000000H   CODE     ---       ips114_init
*DEL*:00000000H   CODE     ---       ips114_init_simspi
*DEL*:00000000H   CODE     ---       ips114_set_region
*DEL*:00000000H   CODE     ---       ips114_set_region_simspi
*DEL*:00000000H   CODE     ---       ips114_showchar
*DEL*:00000000H   CODE     ---       ips114_showchar_simspi
*DEL*:00000000H   CODE     ---       ips114_showfloat
*DEL*:00000000H   CODE     ---       ips114_showfloat_simspi
*DEL*:00000000H   CODE     ---       ips114_showint16
*DEL*:00000000H   CODE     ---       ips114_showint16_simspi
*DEL*:00000000H   CODE     ---       ips114_showint32
*DEL*:00000000H   CODE     ---       ips114_showint32_simspi
*DEL*:00000000H   CODE     ---       ips114_showint8
*DEL*:00000000H   CODE     ---       ips114_showint8_simspi
*DEL*:00000000H   CODE     ---       ips114_showstr
*DEL*:00000000H   CODE     ---       ips114_showstr_simspi
*DEL*:00000000H   CODE     ---       ips114_showuint16
L251 LINKER/LOCATER V4.66.93.0                                                        03/08/2024  18:54:18  PAGE 18


*DEL*:00000000H   CODE     ---       ips114_showuint16_simspi
*DEL*:00000000H   CODE     ---       ips114_showuint8
*DEL*:00000000H   CODE     ---       ips114_showuint8_simspi
*DEL*:00000000H   CODE     ---       ips114_writeData
      00FF52CAH   CODE     ---       ips114_writedata_16bit
*DEL*:00000000H   CODE     ---       ips114_writeData_simspi
      00FF5016H   CODE     ---       ips114_writeDatai_16bit_simspi
      00FF54EEH   CODE     ---       ips114_writeIndex
      00FF50BFH   CODE     ---       ips114_writeIndex_simspi
*DEL*:00000000H   CODE     ---       ips200_clear
*DEL*:00000000H   CODE     ---       ips200_draw_line
*DEL*:00000000H   CODE     ---       ips200_draw_point
*DEL*:00000000H   CODE     ---       ips200_full
*DEL*:00000000H   CODE     ---       ips200_init_spi
*DEL*:00000000H   CODE     ---       ips200_set_color
*DEL*:00000000H   CODE     ---       ips200_set_dir
*DEL*:00000000H   CODE     ---       ips200_set_font
*DEL*:00000000H   CODE     ---       ips200_show_char
*DEL*:00000000H   CODE     ---       ips200_show_chinese
*DEL*:00000000H   CODE     ---       ips200_show_float
*DEL*:00000000H   CODE     ---       ips200_show_int
*DEL*:00000000H   CODE     ---       ips200_show_string
*DEL*:00000000H   CODE     ---       ips200_show_uint
*DEL*:00000000H   CODE     ---       ips200_show_wave
      00FF53BFH   CODE     ---       ips200_write_16bit_data_spi
      00FF0016H   CODE     ---       ips200_write_8bit_data_spi
*SFR* 0000009DH   DATA     BYTE      IRCBAND
*SFR* 0000009FH   DATA     BYTE      IRTRIM
*SFR* 00000088H.0 DATA     BIT       IT0
*SFR* 00000088H.2 DATA     BIT       IT1
*DEL*:00000000H   CODE     ---       lcd_clear
*DEL*:00000000H   CODE     ---       lcd_clear_simspi
*DEL*:00000000H   CODE     ---       lcd_drawpoint
*DEL*:00000000H   CODE     ---       lcd_drawpoint_simspi
*DEL*:00000000H   CODE     ---       lcd_init
*DEL*:00000000H   CODE     ---       lcd_init_simspi
      00FF4CBAH   CODE     ---       lcd_set_region
      00FF4C6EH   CODE     ---       lcd_set_region_simspi
*DEL*:00000000H   CODE     ---       lcd_showchar
*DEL*:00000000H   CODE     ---       lcd_showchar_simspi
*DEL*:00000000H   CODE     ---       lcd_showfloat
*DEL*:00000000H   CODE     ---       lcd_showfloat_simspi
*DEL*:00000000H   CODE     ---       lcd_showint16
*DEL*:00000000H   CODE     ---       lcd_showint16_simspi
*DEL*:00000000H   CODE     ---       lcd_showint32
*DEL*:00000000H   CODE     ---       lcd_showint32_simspi
*DEL*:00000000H   CODE     ---       lcd_showint8
*DEL*:00000000H   CODE     ---       lcd_showint8_simspi
*DEL*:00000000H   CODE     ---       lcd_showstr
*DEL*:00000000H   CODE     ---       lcd_showstr_simspi
*DEL*:00000000H   CODE     ---       lcd_showuint16
*DEL*:00000000H   CODE     ---       lcd_showuint16_simspi
*DEL*:00000000H   CODE     ---       lcd_showuint8
*DEL*:00000000H   CODE     ---       lcd_showuint8_simspi
      00FF54E4H   CODE     ---       lcd_writeData
      00FF52ABH   CODE     ---       lcd_writedata_16bit
      00FF4FEAH   CODE     ---       lcd_writeData_16bit_simspi
      00FF5096H   CODE     ---       lcd_writeData_simspi
      00FF54DAH   CODE     ---       lcd_writeIndex
      00FF506DH   CODE     ---       lcd_writeIndex_simspi
*SFR* 000000F9H   DATA     BYTE      LINICR
      00FF5042H   CODE     ---       main
      00FF513AH   CODE     ---       memcpy?_
*DEL*:00000000H   CODE     ---       memset?_
      0000041EH   EDATA    INT       mpu6050_acc_x
L251 LINKER/LOCATER V4.66.93.0                                                        03/08/2024  18:54:18  PAGE 19


      00000420H   EDATA    INT       mpu6050_acc_y
      00000422H   EDATA    INT       mpu6050_acc_z
*DEL*:00000000H   CODE     ---       mpu6050_get_accdata
*DEL*:00000000H   CODE     ---       mpu6050_get_gyro
      00000424H   EDATA    INT       mpu6050_gyro_x
      00000426H   EDATA    INT       mpu6050_gyro_y
      00000428H   EDATA    INT       mpu6050_gyro_z
*DEL*:00000000H   CODE     ---       mpu6050_init
*DEL*:00000000H   CODE     ---       mpu6050_simiic_read_reg
*DEL*:00000000H   CODE     ---       mpu6050_simiic_read_regs
*DEL*:00000000H   CODE     ---       NVIC_SetPriority
      00FF3525H   CODE     ---       oled_6x8
      00FF271DH   CODE     ---       oled_8x16
*DEL*:00000000H   CODE     ---       oled_clrpixel
*DEL*:00000000H   CODE     ---       oled_clrpixel_spi
*DEL*:00000000H   CODE     ---       oled_dis_bmp
*DEL*:00000000H   CODE     ---       oled_dis_bmp_spi
*DEL*:00000000H   CODE     ---       oled_fill
*DEL*:00000000H   CODE     ---       oled_fill_spi
*DEL*:00000000H   CODE     ---       oled_hexascii
*DEL*:00000000H   CODE     ---       oled_hexascii_spi
*DEL*:00000000H   CODE     ---       oled_init
*DEL*:00000000H   CODE     ---       oled_init_spi
*DEL*:00000000H   CODE     ---       oled_int16
*DEL*:00000000H   CODE     ---       oled_int16_spi
*DEL*:00000000H   CODE     ---       oled_p6x8str
*DEL*:00000000H   CODE     ---       oled_p6x8str_spi
*DEL*:00000000H   CODE     ---       oled_p8x16str
*DEL*:00000000H   CODE     ---       oled_p8x16str_spi
*DEL*:00000000H   CODE     ---       oled_print_chinese
*DEL*:00000000H   CODE     ---       oled_print_chinese_spi
*DEL*:00000000H   CODE     ---       oled_printf_float
*DEL*:00000000H   CODE     ---       oled_printf_float_spi
*DEL*:00000000H   CODE     ---       oled_printf_int32
*DEL*:00000000H   CODE     ---       oled_printf_int32_spi
*DEL*:00000000H   CODE     ---       oled_putpixel
*DEL*:00000000H   CODE     ---       oled_putpixel_spi
      00FF51C8H   CODE     ---       oled_set_pos
      00FF51EBH   CODE     ---       oled_set_pos_spi
*DEL*:00000000H   CODE     ---       oled_uint16
*DEL*:00000000H   CODE     ---       oled_uint16_spi
      00FF50E8H   CODE     ---       oled_wrcmd
      00FF5502H   CODE     ---       oled_wrcmd_spi
      00FF5111H   CODE     ---       oled_wrdat
      00FF550CH   CODE     ---       oled_wrdat_spi
*SFR* 00000080H   DATA     BYTE      P0
*SFR* 00000080H.2 DATA     BIT       P02
*SFR* 00000080H.7 DATA     BIT       P07
*SFR* 00000094H   DATA     BYTE      P0M0
*SFR* 00000093H   DATA     BYTE      P0M1
*SFR* 00000090H   DATA     BYTE      P1
*SFR* 00000092H   DATA     BYTE      P1M0
*SFR* 00000091H   DATA     BYTE      P1M1
*SFR* 000000A0H   DATA     BYTE      P2
*SFR* 000000A0H.0 DATA     BIT       P20
*SFR* 000000A0H.1 DATA     BIT       P21
*SFR* 000000A0H.2 DATA     BIT       P22
*SFR* 000000A0H.3 DATA     BIT       P23
*SFR* 000000A0H.4 DATA     BIT       P24
*SFR* 000000A0H.5 DATA     BIT       P25
*SFR* 000000A0H.6 DATA     BIT       P26
*SFR* 000000A0H.7 DATA     BIT       P27
*SFR* 00000096H   DATA     BYTE      P2M0
*SFR* 00000095H   DATA     BYTE      P2M1
*SFR* 000000B0H   DATA     BYTE      P3
L251 LINKER/LOCATER V4.66.93.0                                                        03/08/2024  18:54:18  PAGE 20


*SFR* 000000B0H.6 DATA     BIT       P36
*SFR* 000000B0H.7 DATA     BIT       P37
*SFR* 000000B2H   DATA     BYTE      P3M0
*SFR* 000000B1H   DATA     BYTE      P3M1
*SFR* 000000C0H   DATA     BYTE      P4
*SFR* 000000C0H.0 DATA     BIT       P40
*SFR* 000000C0H.1 DATA     BIT       P41
*SFR* 000000C0H.2 DATA     BIT       P42
*SFR* 000000C0H.3 DATA     BIT       P43
*SFR* 000000B4H   DATA     BYTE      P4M0
*SFR* 000000B3H   DATA     BYTE      P4M1
*SFR* 000000C8H   DATA     BYTE      P5
*SFR* 000000C8H.0 DATA     BIT       P50
*SFR* 000000C8H.2 DATA     BIT       P52
*SFR* 000000CAH   DATA     BYTE      P5M0
*SFR* 000000C9H   DATA     BYTE      P5M1
*SFR* 000000E8H   DATA     BYTE      P6
*SFR* 000000CCH   DATA     BYTE      P6M0
*SFR* 000000CBH   DATA     BYTE      P6M1
*SFR* 000000F8H   DATA     BYTE      P7
*SFR* 000000E2H   DATA     BYTE      P7M0
*SFR* 000000E1H   DATA     BYTE      P7M1
*SFR* 000000A2H   DATA     BYTE      P_SW1
*SFR* 000000BAH   DATA     BYTE      P_SW2
*SFR* 000000BBH   DATA     BYTE      P_SW3
*SFR* 00000087H   DATA     BYTE      PCON
*DEL*:00000000H   CODE     ---       pit_timer_ms
      00FF374DH   CODE     NEAR LAB  printf
*SFR* 000000D0H   DATA     BYTE      PSW
      00FF5490H   CODE     ---       putchar
      00FF560AH   HCONST   ---       PWM_ARR_ADDR
      00FF5612H   HCONST   ---       PWM_CCER_ADDR
      00FF5622H   HCONST   ---       PWM_CCMR_ADDR
      00FF55EAH   HCONST   ---       PWM_CCR_ADDR
*DEL*:00000000H   CODE     ---       pwm_duty
*DEL*:00000000H   CODE     ---       pwm_freq
*DEL*:00000000H   CODE     ---       pwm_init
*DEL*:00000000H   CODE     ---       pwm_set_gpio
*DEL*:00000000H   CODE     ---       recv_ack
*DEL*:00000000H   CODE     ---       recv_data
*SFR* 000000FFH   DATA     BYTE      RSTCFG
*SFR* 0000009BH   DATA     BYTE      S2BUF
*SFR* 0000009AH   DATA     BYTE      S2CON
*SFR* 000000ADH   DATA     BYTE      S3BUF
*SFR* 000000ACH   DATA     BYTE      S3CON
*SFR* 000000FEH   DATA     BYTE      S4BUF
*SFR* 000000FDH   DATA     BYTE      S4CON
*SFR* 00000099H   DATA     BYTE      SBUF
*SFR* 00000098H   DATA     BYTE      SCON
*DEL*:00000000H   CODE     ---       send_ack
*DEL*:00000000H   CODE     ---       send_data
*DEL*:00000000H   CODE     ---       send_nak
      00FF3E1DH   CODE     ---       set_clk
*DEL*:00000000H   CODE     ---       set_zero_position_simspi
*DEL*:00000000H   CODE     ---       set_zero_position_spi
*DEL*:00000000H   CODE     ---       sfprint
*DEL*:00000000H   CODE     ---       showimage
*DEL*:00000000H   CODE     ---       simspi_r_reg_byte
*DEL*:00000000H   CODE     ---       simspi_w_reg_byte
*DEL*:00000000H   CODE     ---       simspi_wr_byte
*DEL*:00000000H   CODE     ---       SIN?_
*SFR* 000000CEH   DATA     BYTE      SPCTL
*SFR* 000000CFH   DATA     BYTE      SPDAT
*DEL*:00000000H   CODE     ---       spi_change_mode
*DEL*:00000000H   CODE     ---       spi_change_pin
L251 LINKER/LOCATER V4.66.93.0                                                        03/08/2024  18:54:18  PAGE 21


*DEL*:00000000H   CODE     ---       spi_init
      00FF549EH   CODE     ---       spi_mosi
*DEL*:00000000H   CODE     ---       spi_r_reg_byte
*DEL*:00000000H   CODE     ---       spi_w_reg_byte
*DEL*:00000000H   CODE     ---       spi_wr_byte
*SFR* 000000CDH   DATA     BYTE      SPSTAT
*DEL*:00000000H   CODE     ---       SQRT?_
*DEL*:00000000H   CODE     ---       start
*DEL*:00000000H   CODE     ---       stop
*DEL*:00000000H   CODE     ---       strlen?_
      0000044AH   EDATA    LONG      sys_clk
*SFR* 000000D6H   DATA     BYTE      T2H
*SFR* 000000D7H   DATA     BYTE      T2L
*SFR* 000000D4H   DATA     BYTE      T3H
*SFR* 000000D5H   DATA     BYTE      T3L
*SFR* 000000D2H   DATA     BYTE      T4H
*SFR* 000000D3H   DATA     BYTE      T4L
*SFR* 000000DDH   DATA     BYTE      T4T3M
*SFR* 000000AEH   DATA     BYTE      TA
*DEL*:00000000H   CODE     ---       TAN?_
*SFR* 00000088H   DATA     BYTE      TCON
      00FF2D0DH   CODE     ---       tft_ascii
*SFR* 0000008CH   DATA     BYTE      TH0
*SFR* 0000008DH   DATA     BYTE      TH1
      00000450H   EDATA    WORD      the_delay_ms
      0000044EH   EDATA    WORD      the_delay_us
*SFR* 0000008AH   DATA     BYTE      TL0
*SFR* 0000008BH   DATA     BYTE      TL1
      00FF0012H   CODE     ---       TM0_Isr
      00FF0019H   CODE     ---       TM1_Isr
      00FF552EH   CODE     ---       TM2_Isr
      00FF5536H   CODE     ---       TM3_Isr
      00FF553EH   CODE     ---       TM4_Isr
*SFR* 00000089H   DATA     BYTE      TMOD
*SFR* 00000088H.4 DATA     BIT       TR0
*SFR* 00000088H.6 DATA     BIT       TR1
      00000008H   EDATA    BYTE      tsl1401_finish_flag
      00FF4E06H   CODE     ---       UART1_Isr
      00FF52E9H   CODE     ---       UART2_Isr
      00FF5307H   CODE     ---       UART3_Isr
      00FF4A71H   CODE     ---       UART4_Isr
      00FF4681H   CODE     ---       uart_init
*DEL*:00000000H   CODE     ---       uart_putbuff
      00FF4B27H   CODE     ---       uart_putchar
*DEL*:00000000H   CODE     ---       uart_putstr
*SFR* 000000F4H   DATA     BYTE      USBCON
      0000042AH   EDATA    ---       virtual_scope_data
*SFR* 000000A6H   DATA     BYTE      VRTRIM
      00FF4D02H   CODE     ---       wait
*SFR* 000000C1H   DATA     BYTE      WDT_CONTR
*DEL*:00000000H   CODE     ---       wireless_ch573_callback
*DEL*:00000000H   CODE     ---       wireless_ch573_init
*DEL*:00000000H   CODE     ---       wireless_ch573_read_buff
*DEL*:00000000H   CODE     ---       wireless_ch573_send_buff
      00000469H   EDATA    INT       wireless_type
      00FF538EH   CODE     ---       wireless_uart_callback
*DEL*:00000000H   CODE     ---       wireless_uart_init
*DEL*:00000000H   CODE     ---       wireless_uart_read_buff
*DEL*:00000000H   CODE     ---       wireless_uart_send_buff
*DEL*:00000000H   CODE     ---       wireless_uart_send_byte
*SFR* 000000E9H   DATA     BYTE      WTST



SYMBOL TABLE OF MODULE:  .\Out_flie\TestProject (board)
L251 LINKER/LOCATER V4.66.93.0                                                        03/08/2024  18:54:18  PAGE 22



      VALUE       REP       CLASS    TYPE      SYMBOL NAME
      ====================================================
      ---         MODULE    ---      ---       board
      00FF000EH   PUBLIC    CODE     ---       EnableGlobalIRQ
      00FF49FBH   PUBLIC    CODE     ---       board_init
      00FF54B9H   PUBLIC    CODE     ---       clock_init
      00FF5482H   PUBLIC    CODE     ---       ICacheOn
      00FF3E1DH   PUBLIC    CODE     ---       set_clk
      00FF5490H   PUBLIC    CODE     ---       putchar
      0000044AH   PUBLIC    EDATA    LONG      sys_clk
      00000094H   SFRSYM    DATA     BYTE      P0M0
      000000D0H   SFRSYM    DATA     BYTE      PSW
      0000009DH   SFRSYM    DATA     BYTE      IRCBAND
      00000097H   SFRSYM    DATA     BYTE      AUXR2
      000000EFH   SFRSYM    DATA     BYTE      AUXINTIF
      000000FDH   SFRSYM    DATA     BYTE      S4CON
      000000ACH   SFRSYM    DATA     BYTE      S3CON
      0000009AH   SFRSYM    DATA     BYTE      S2CON
      000000A6H   SFRSYM    DATA     BYTE      VRTRIM
      000000B7H   SFRSYM    DATA     BYTE      IPH
      000000CDH   SFRSYM    DATA     BYTE      SPSTAT
      000000DDH   SFRSYM    DATA     BYTE      T4T3M
      0000009FH   SFRSYM    DATA     BYTE      IRTRIM
      000000C1H   SFRSYM    DATA     BYTE      WDT_CONTR
      000000E9H   SFRSYM    DATA     BYTE      WTST
      000000DFH   SFRSYM    DATA     BYTE      IP3
      000000F4H   SFRSYM    DATA     BYTE      USBCON
      000000B5H   SFRSYM    DATA     BYTE      IP2
      000000FFH   SFRSYM    DATA     BYTE      RSTCFG
      000000C7H   SFRSYM    DATA     BYTE      IAP_CONTR
      000000F9H   SFRSYM    DATA     BYTE      LINICR
      0000008EH   SFRSYM    DATA     BYTE      AUXR
      000000AFH   SFRSYM    DATA     BYTE      IE2
      00000088H   SFRSYM    DATA     BYTE      TCON
      00000089H   SFRSYM    DATA     BYTE      TMOD
      00000098H   SFRSYM    DATA     BYTE      SCON
      000000F1H   SFRSYM    DATA     BYTE      CANICR
      00000087H   SFRSYM    DATA     BYTE      PCON
      000000BCH   SFRSYM    DATA     BYTE      ADC_CONTR
      000000F7H   SFRSYM    DATA     BYTE      ICHECR
      000000E7H   SFRSYM    DATA     BYTE      CMPCR2
      000000E6H   SFRSYM    DATA     BYTE      CMPCR1
      000000DEH   SFRSYM    DATA     BYTE      ADCCFG
      000000B8H   SFRSYM    DATA     BYTE      IP
      0000008FH   SFRSYM    DATA     BYTE      INTCLKO
      000000AEH   SFRSYM    DATA     BYTE      TA
      000000EEH   SFRSYM    DATA     BYTE      IP3H
      000000B6H   SFRSYM    DATA     BYTE      IP2H
      000000A8H   SFRSYM    DATA     BYTE      IE
      000000BBH   SFRSYM    DATA     BYTE      P_SW3
      000000BAH   SFRSYM    DATA     BYTE      P_SW2
      000000A2H   SFRSYM    DATA     BYTE      P_SW1
      000000CEH   SFRSYM    DATA     BYTE      SPCTL
      000000F8H   SFRSYM    DATA     BYTE      P7
      000000A8H.7 SFRSYM    DATA     BIT       EA
      000000E8H   SFRSYM    DATA     BYTE      P6
      000000C8H   SFRSYM    DATA     BYTE      P5
      000000C0H   SFRSYM    DATA     BYTE      P4
      000000C9H   SFRSYM    DATA     BYTE      P5M1
      000000B0H   SFRSYM    DATA     BYTE      P3
      000000B3H   SFRSYM    DATA     BYTE      P4M1
      000000CAH   SFRSYM    DATA     BYTE      P5M0
      000000A0H   SFRSYM    DATA     BYTE      P2
      000000B1H   SFRSYM    DATA     BYTE      P3M1
L251 LINKER/LOCATER V4.66.93.0                                                        03/08/2024  18:54:18  PAGE 23


      000000B4H   SFRSYM    DATA     BYTE      P4M0
      00000090H   SFRSYM    DATA     BYTE      P1
      00000095H   SFRSYM    DATA     BYTE      P2M1
      000000B2H   SFRSYM    DATA     BYTE      P3M0
      00000080H   SFRSYM    DATA     BYTE      P0
      00000091H   SFRSYM    DATA     BYTE      P1M1
      00000096H   SFRSYM    DATA     BYTE      P2M0
      00000092H   SFRSYM    DATA     BYTE      P1M0
      00000093H   SFRSYM    DATA     BYTE      P0M1

      00FF3E1DH   BLOCK     CODE     ---       LVL=0
      DR0         REGSYM    ---      DWORD     clock
      00FF3E1FH   BLOCK     CODE     NEAR LAB  LVL=1
      DR4         REGSYM    ---      DWORD     temp_sys_clk
      ---         BLOCKEND  ---      ---       LVL=1
      00FF3E1DH   LINE      CODE     ---       #23
      00FF3E1FH   LINE      CODE     ---       #24
      00FF3E1FH   LINE      CODE     ---       #25
      00FF3E1FH   LINE      CODE     ---       #28
      00FF3EFCH   LINE      CODE     ---       #30
      00FF3EFCH   LINE      CODE     ---       #32
      00FF3F09H   LINE      CODE     ---       #33
      00FF3F16H   LINE      CODE     ---       #34
      00FF3F1FH   LINE      CODE     ---       #35
      00FF3F22H   LINE      CODE     ---       #36
      00FF3F25H   LINE      CODE     ---       #37
      00FF3F26H   LINE      CODE     ---       #38
      00FF3F27H   LINE      CODE     ---       #39
      00FF3F28H   LINE      CODE     ---       #40
      00FF3F29H   LINE      CODE     ---       #41
      00FF3F2BH   LINE      CODE     ---       #42
      00FF3F2BH   LINE      CODE     ---       #43
      00FF3F2EH   LINE      CODE     ---       #45
      00FF3F2EH   LINE      CODE     ---       #47
      00FF3F3BH   LINE      CODE     ---       #48
      00FF3F48H   LINE      CODE     ---       #49
      00FF3F51H   LINE      CODE     ---       #50
      00FF3F54H   LINE      CODE     ---       #51
      00FF3F57H   LINE      CODE     ---       #52
      00FF3F58H   LINE      CODE     ---       #53
      00FF3F59H   LINE      CODE     ---       #54
      00FF3F5AH   LINE      CODE     ---       #55
      00FF3F5BH   LINE      CODE     ---       #56
      00FF3F5DH   LINE      CODE     ---       #57
      00FF3F5DH   LINE      CODE     ---       #58
      00FF3F60H   LINE      CODE     ---       #60
      00FF3F60H   LINE      CODE     ---       #62
      00FF3F6DH   LINE      CODE     ---       #63
      00FF3F7AH   LINE      CODE     ---       #64
      00FF3F83H   LINE      CODE     ---       #65
      00FF3F86H   LINE      CODE     ---       #66
      00FF3F89H   LINE      CODE     ---       #67
      00FF3F8AH   LINE      CODE     ---       #68
      00FF3F8BH   LINE      CODE     ---       #69
      00FF3F8CH   LINE      CODE     ---       #70
      00FF3F8DH   LINE      CODE     ---       #71
      00FF3F8FH   LINE      CODE     ---       #72
      00FF3F8FH   LINE      CODE     ---       #73
      00FF3F92H   LINE      CODE     ---       #75
      00FF3F92H   LINE      CODE     ---       #77
      00FF3F9FH   LINE      CODE     ---       #78
      00FF3FACH   LINE      CODE     ---       #79
      00FF3FB5H   LINE      CODE     ---       #80
      00FF3FB8H   LINE      CODE     ---       #81
      00FF3FB9H   LINE      CODE     ---       #82
L251 LINKER/LOCATER V4.66.93.0                                                        03/08/2024  18:54:18  PAGE 24


      00FF3FBAH   LINE      CODE     ---       #83
      00FF3FBBH   LINE      CODE     ---       #84
      00FF3FBCH   LINE      CODE     ---       #85
      00FF3FBFH   LINE      CODE     ---       #86
      00FF3FC1H   LINE      CODE     ---       #87
      00FF3FC1H   LINE      CODE     ---       #88
      00FF3FC4H   LINE      CODE     ---       #90
      00FF3FC4H   LINE      CODE     ---       #92
      00FF3FD1H   LINE      CODE     ---       #93
      00FF3FDEH   LINE      CODE     ---       #94
      00FF3FE7H   LINE      CODE     ---       #95
      00FF3FEAH   LINE      CODE     ---       #96
      00FF3FEDH   LINE      CODE     ---       #97
      00FF3FEEH   LINE      CODE     ---       #98
      00FF3FEFH   LINE      CODE     ---       #99
      00FF3FF0H   LINE      CODE     ---       #100
      00FF3FF1H   LINE      CODE     ---       #101
      00FF3FF3H   LINE      CODE     ---       #102
      00FF3FF3H   LINE      CODE     ---       #103
      00FF3FF6H   LINE      CODE     ---       #105
      00FF3FF6H   LINE      CODE     ---       #107
      00FF4003H   LINE      CODE     ---       #108
      00FF4010H   LINE      CODE     ---       #109
      00FF4019H   LINE      CODE     ---       #110
      00FF401CH   LINE      CODE     ---       #111
      00FF401FH   LINE      CODE     ---       #112
      00FF4020H   LINE      CODE     ---       #113
      00FF4021H   LINE      CODE     ---       #114
      00FF4022H   LINE      CODE     ---       #115
      00FF4023H   LINE      CODE     ---       #116
      00FF4025H   LINE      CODE     ---       #117
      00FF4025H   LINE      CODE     ---       #118
      00FF4028H   LINE      CODE     ---       #120
      00FF4028H   LINE      CODE     ---       #122
      00FF4035H   LINE      CODE     ---       #123
      00FF4042H   LINE      CODE     ---       #124
      00FF404BH   LINE      CODE     ---       #125
      00FF404EH   LINE      CODE     ---       #126
      00FF4051H   LINE      CODE     ---       #127
      00FF4052H   LINE      CODE     ---       #128
      00FF4053H   LINE      CODE     ---       #129
      00FF4054H   LINE      CODE     ---       #130
      00FF4055H   LINE      CODE     ---       #131
      00FF4057H   LINE      CODE     ---       #132
      00FF4057H   LINE      CODE     ---       #133
      00FF405AH   LINE      CODE     ---       #135
      00FF405AH   LINE      CODE     ---       #137
      00FF4067H   LINE      CODE     ---       #138
      00FF4074H   LINE      CODE     ---       #139
      00FF407DH   LINE      CODE     ---       #140
      00FF4080H   LINE      CODE     ---       #141
      00FF4083H   LINE      CODE     ---       #142
      00FF4084H   LINE      CODE     ---       #143
      00FF4085H   LINE      CODE     ---       #144
      00FF4086H   LINE      CODE     ---       #145
      00FF4087H   LINE      CODE     ---       #146
      00FF4089H   LINE      CODE     ---       #147
      00FF4089H   LINE      CODE     ---       #148
      00FF408CH   LINE      CODE     ---       #150
      00FF408CH   LINE      CODE     ---       #152
      00FF4099H   LINE      CODE     ---       #153
      00FF40A6H   LINE      CODE     ---       #154
      00FF40AFH   LINE      CODE     ---       #155
      00FF40B2H   LINE      CODE     ---       #156
      00FF40B5H   LINE      CODE     ---       #157
L251 LINKER/LOCATER V4.66.93.0                                                        03/08/2024  18:54:18  PAGE 25


      00FF40B6H   LINE      CODE     ---       #158
      00FF40B7H   LINE      CODE     ---       #159
      00FF40B8H   LINE      CODE     ---       #160
      00FF40B9H   LINE      CODE     ---       #161
      00FF40BBH   LINE      CODE     ---       #162
      00FF40BBH   LINE      CODE     ---       #163
      00FF40BEH   LINE      CODE     ---       #165
      00FF40BEH   LINE      CODE     ---       #167
      00FF40CBH   LINE      CODE     ---       #168
      00FF40D8H   LINE      CODE     ---       #169
      00FF40E1H   LINE      CODE     ---       #170
      00FF40E4H   LINE      CODE     ---       #171
      00FF40E7H   LINE      CODE     ---       #172
      00FF40E8H   LINE      CODE     ---       #173
      00FF40E9H   LINE      CODE     ---       #174
      00FF40EAH   LINE      CODE     ---       #175
      00FF40EBH   LINE      CODE     ---       #176
      00FF40EDH   LINE      CODE     ---       #177
      00FF40EDH   LINE      CODE     ---       #178
      00FF40F0H   LINE      CODE     ---       #180
      00FF40F0H   LINE      CODE     ---       #182
      00FF40FDH   LINE      CODE     ---       #183
      00FF410AH   LINE      CODE     ---       #184
      00FF4113H   LINE      CODE     ---       #185
      00FF4116H   LINE      CODE     ---       #186
      00FF4119H   LINE      CODE     ---       #187
      00FF411AH   LINE      CODE     ---       #188
      00FF411BH   LINE      CODE     ---       #189
      00FF411CH   LINE      CODE     ---       #190
      00FF411DH   LINE      CODE     ---       #191
      00FF411FH   LINE      CODE     ---       #192
      00FF411FH   LINE      CODE     ---       #193
      00FF4122H   LINE      CODE     ---       #195
      00FF4122H   LINE      CODE     ---       #197
      00FF412FH   LINE      CODE     ---       #198
      00FF413CH   LINE      CODE     ---       #199
      00FF4145H   LINE      CODE     ---       #200
      00FF4148H   LINE      CODE     ---       #201
      00FF414BH   LINE      CODE     ---       #202
      00FF414CH   LINE      CODE     ---       #203
      00FF414DH   LINE      CODE     ---       #204
      00FF414EH   LINE      CODE     ---       #205
      00FF414FH   LINE      CODE     ---       #206
      00FF4151H   LINE      CODE     ---       #207
      00FF4151H   LINE      CODE     ---       #208
      00FF4154H   LINE      CODE     ---       #210
      00FF4154H   LINE      CODE     ---       #212
      00FF4161H   LINE      CODE     ---       #213
      00FF416EH   LINE      CODE     ---       #214
      00FF4177H   LINE      CODE     ---       #215
      00FF417AH   LINE      CODE     ---       #216
      00FF417DH   LINE      CODE     ---       #217
      00FF417EH   LINE      CODE     ---       #218
      00FF417FH   LINE      CODE     ---       #219
      00FF4180H   LINE      CODE     ---       #220
      00FF4181H   LINE      CODE     ---       #221
      00FF4183H   LINE      CODE     ---       #222
      00FF4183H   LINE      CODE     ---       #223
      00FF4186H   LINE      CODE     ---       #225
      00FF4186H   LINE      CODE     ---       #227
      00FF4193H   LINE      CODE     ---       #228
      00FF41A0H   LINE      CODE     ---       #229
      00FF41A9H   LINE      CODE     ---       #230
      00FF41ACH   LINE      CODE     ---       #231
      00FF41AFH   LINE      CODE     ---       #232
L251 LINKER/LOCATER V4.66.93.0                                                        03/08/2024  18:54:18  PAGE 26


      00FF41B0H   LINE      CODE     ---       #233
      00FF41B1H   LINE      CODE     ---       #234
      00FF41B2H   LINE      CODE     ---       #235
      00FF41B3H   LINE      CODE     ---       #236
      00FF41B5H   LINE      CODE     ---       #237
      00FF41B5H   LINE      CODE     ---       #238
      00FF41B8H   LINE      CODE     ---       #240
      00FF41B8H   LINE      CODE     ---       #242
      00FF41C5H   LINE      CODE     ---       #243
      00FF41D2H   LINE      CODE     ---       #244
      00FF41DBH   LINE      CODE     ---       #245
      00FF41DEH   LINE      CODE     ---       #246
      00FF41E1H   LINE      CODE     ---       #247
      00FF41E2H   LINE      CODE     ---       #248
      00FF41E3H   LINE      CODE     ---       #249
      00FF41E4H   LINE      CODE     ---       #250
      00FF41E5H   LINE      CODE     ---       #251
      00FF41E7H   LINE      CODE     ---       #252
      00FF41E7H   LINE      CODE     ---       #253
      00FF41E9H   LINE      CODE     ---       #255
      00FF41E9H   LINE      CODE     ---       #257
      00FF41F6H   LINE      CODE     ---       #258
      00FF4203H   LINE      CODE     ---       #259
      00FF420CH   LINE      CODE     ---       #260
      00FF420FH   LINE      CODE     ---       #261
      00FF4212H   LINE      CODE     ---       #262
      00FF4213H   LINE      CODE     ---       #263
      00FF4214H   LINE      CODE     ---       #264
      00FF4215H   LINE      CODE     ---       #265
      00FF4216H   LINE      CODE     ---       #266
      00FF4218H   LINE      CODE     ---       #267
      00FF4218H   LINE      CODE     ---       #268
      00FF421AH   LINE      CODE     ---       #270
      00FF421AH   LINE      CODE     ---       #272
      00FF4227H   LINE      CODE     ---       #273
      00FF4234H   LINE      CODE     ---       #274
      00FF423DH   LINE      CODE     ---       #275
      00FF4240H   LINE      CODE     ---       #276
      00FF4243H   LINE      CODE     ---       #277
      00FF4244H   LINE      CODE     ---       #278
      00FF4245H   LINE      CODE     ---       #279
      00FF4246H   LINE      CODE     ---       #280
      00FF4247H   LINE      CODE     ---       #281
      00FF424CH   LINE      CODE     ---       #282
      00FF424EH   LINE      CODE     ---       #283
      00FF424FH   LINE      CODE     ---       #295
      00FF424FH   LINE      CODE     ---       #297
      00FF425CH   LINE      CODE     ---       #298
      00FF4269H   LINE      CODE     ---       #299
      00FF4272H   LINE      CODE     ---       #300
      00FF4275H   LINE      CODE     ---       #301
      00FF4278H   LINE      CODE     ---       #302
      00FF4279H   LINE      CODE     ---       #303
      00FF427AH   LINE      CODE     ---       #304
      00FF427BH   LINE      CODE     ---       #305
      00FF427CH   LINE      CODE     ---       #306
      00FF4281H   LINE      CODE     ---       #307
      00FF4289H   LINE      CODE     ---       #308
      00FF4289H   LINE      CODE     ---       #309
      00FF4289H   LINE      CODE     ---       #311
      00FF4289H   LINE      CODE     ---       #312
      ---         BLOCKEND  ---      ---       LVL=0

      00FF5490H   BLOCK     CODE     ---       LVL=0
      R15         REGSYM    ---      CHAR      c
L251 LINKER/LOCATER V4.66.93.0                                                        03/08/2024  18:54:18  PAGE 27


      00FF5490H   LINE      CODE     ---       #321
      00FF5494H   LINE      CODE     ---       #323
      00FF5499H   LINE      CODE     ---       #325
      00FF549BH   LINE      CODE     ---       #326
      ---         BLOCKEND  ---      ---       LVL=0

      00FF000EH   BLOCK     CODE     ---       LVL=0
      00FF000EH   LINE      CODE     ---       #335
      00FF000EH   LINE      CODE     ---       #337
      00FF0010H   LINE      CODE     ---       #338
      ---         BLOCKEND  ---      ---       LVL=0

      00FF5482H   BLOCK     CODE     ---       LVL=0
      00FF5482H   LINE      CODE     ---       #373
      00FF5482H   LINE      CODE     ---       #375
      00FF5483H   LINE      CODE     ---       #376
      00FF5484H   LINE      CODE     ---       #377
      00FF5487H   LINE      CODE     ---       #379
      00FF548AH   LINE      CODE     ---       #381
      00FF548DH   LINE      CODE     ---       #383
      00FF548EH   LINE      CODE     ---       #384
      00FF548FH   LINE      CODE     ---       #385
      ---         BLOCKEND  ---      ---       LVL=0

      00FF54B9H   BLOCK     CODE     ---       LVL=0
      DR0         REGSYM    ---      DWORD     clock
      00FF54B9H   LINE      CODE     ---       #387
      00FF54B9H   LINE      CODE     ---       #389
      00FF54BCH   LINE      CODE     ---       #397
      00FF54C3H   LINE      CODE     ---       #401
      ---         BLOCKEND  ---      ---       LVL=0

      00FF49FBH   BLOCK     CODE     ---       LVL=0
      00FF49FBH   LINE      CODE     ---       #404
      00FF49FBH   LINE      CODE     ---       #407
      00FF49FEH   LINE      CODE     ---       #410
      00FF4A01H   LINE      CODE     ---       #411
      00FF4A04H   LINE      CODE     ---       #412
      00FF4A07H   LINE      CODE     ---       #413
      00FF4A0AH   LINE      CODE     ---       #414
      00FF4A0DH   LINE      CODE     ---       #415
      00FF4A10H   LINE      CODE     ---       #416
      00FF4A13H   LINE      CODE     ---       #417
      00FF4A16H   LINE      CODE     ---       #418
      00FF4A19H   LINE      CODE     ---       #419
      00FF4A1CH   LINE      CODE     ---       #420
      00FF4A1FH   LINE      CODE     ---       #421
      00FF4A22H   LINE      CODE     ---       #440
      00FF4A25H   LINE      CODE     ---       #442
      00FF4A35H   LINE      CODE     ---       #447
      00FF4A38H   LINE      CODE     ---       #448
      00FF4A38H   LINE      CODE     ---       #452
      00FF4A3BH   LINE      CODE     ---       #453
      00FF4A3EH   LINE      CODE     ---       #454
      00FF4A41H   LINE      CODE     ---       #455
      00FF4A44H   LINE      CODE     ---       #456
      00FF4A47H   LINE      CODE     ---       #457
      00FF4A4AH   LINE      CODE     ---       #458
      00FF4A4DH   LINE      CODE     ---       #459
      00FF4A50H   LINE      CODE     ---       #460
      00FF4A53H   LINE      CODE     ---       #462
      00FF4A6EH   LINE      CODE     ---       #463
      ---         BLOCKEND  ---      ---       LVL=0

      ---         MODULE    ---      ---       common
L251 LINKER/LOCATER V4.66.93.0                                                        03/08/2024  18:54:18  PAGE 28


      00000469H   PUBLIC    EDATA    INT       wireless_type
      000000D0H   SFRSYM    DATA     BYTE      PSW
      0000009DH   SFRSYM    DATA     BYTE      IRCBAND
      00000097H   SFRSYM    DATA     BYTE      AUXR2
      000000EFH   SFRSYM    DATA     BYTE      AUXINTIF
      000000FDH   SFRSYM    DATA     BYTE      S4CON
      000000ACH   SFRSYM    DATA     BYTE      S3CON
      0000009AH   SFRSYM    DATA     BYTE      S2CON
      000000B7H   SFRSYM    DATA     BYTE      IPH
      000000CDH   SFRSYM    DATA     BYTE      SPSTAT
      000000DDH   SFRSYM    DATA     BYTE      T4T3M
      000000C1H   SFRSYM    DATA     BYTE      WDT_CONTR
      000000DFH   SFRSYM    DATA     BYTE      IP3
      000000F4H   SFRSYM    DATA     BYTE      USBCON
      000000B5H   SFRSYM    DATA     BYTE      IP2
      000000FFH   SFRSYM    DATA     BYTE      RSTCFG
      000000C7H   SFRSYM    DATA     BYTE      IAP_CONTR
      000000F9H   SFRSYM    DATA     BYTE      LINICR
      0000008EH   SFRSYM    DATA     BYTE      AUXR
      000000AFH   SFRSYM    DATA     BYTE      IE2
      00000088H   SFRSYM    DATA     BYTE      TCON
      00000089H   SFRSYM    DATA     BYTE      TMOD
      00000098H   SFRSYM    DATA     BYTE      SCON
      000000F1H   SFRSYM    DATA     BYTE      CANICR
      00000087H   SFRSYM    DATA     BYTE      PCON
      000000BCH   SFRSYM    DATA     BYTE      ADC_CONTR
      000000E7H   SFRSYM    DATA     BYTE      CMPCR2
      000000E6H   SFRSYM    DATA     BYTE      CMPCR1
      000000DEH   SFRSYM    DATA     BYTE      ADCCFG
      000000B8H   SFRSYM    DATA     BYTE      IP
      0000008FH   SFRSYM    DATA     BYTE      INTCLKO
      000000EEH   SFRSYM    DATA     BYTE      IP3H
      000000B6H   SFRSYM    DATA     BYTE      IP2H
      000000A8H   SFRSYM    DATA     BYTE      IE
      000000BBH   SFRSYM    DATA     BYTE      P_SW3
      000000BAH   SFRSYM    DATA     BYTE      P_SW2
      000000A2H   SFRSYM    DATA     BYTE      P_SW1
      000000CEH   SFRSYM    DATA     BYTE      SPCTL
      000000F8H   SFRSYM    DATA     BYTE      P7
      000000E8H   SFRSYM    DATA     BYTE      P6
      000000C8H   SFRSYM    DATA     BYTE      P5
      000000C0H   SFRSYM    DATA     BYTE      P4
      000000B0H   SFRSYM    DATA     BYTE      P3
      000000A0H   SFRSYM    DATA     BYTE      P2
      00000090H   SFRSYM    DATA     BYTE      P1
      00000080H   SFRSYM    DATA     BYTE      P0

      ---         MODULE    ---      ---       adc
      00000094H   SFRSYM    DATA     BYTE      P0M0
      000000D0H   SFRSYM    DATA     BYTE      PSW
      0000009DH   SFRSYM    DATA     BYTE      IRCBAND
      00000097H   SFRSYM    DATA     BYTE      AUXR2
      000000EFH   SFRSYM    DATA     BYTE      AUXINTIF
      000000FDH   SFRSYM    DATA     BYTE      S4CON
      000000ACH   SFRSYM    DATA     BYTE      S3CON
      0000009AH   SFRSYM    DATA     BYTE      S2CON
      000000B7H   SFRSYM    DATA     BYTE      IPH
      000000CDH   SFRSYM    DATA     BYTE      SPSTAT
      000000BEH   SFRSYM    DATA     BYTE      ADC_RESL
      000000DDH   SFRSYM    DATA     BYTE      T4T3M
      000000C1H   SFRSYM    DATA     BYTE      WDT_CONTR
      000000DFH   SFRSYM    DATA     BYTE      IP3
      000000F4H   SFRSYM    DATA     BYTE      USBCON
      000000B5H   SFRSYM    DATA     BYTE      IP2
      000000FFH   SFRSYM    DATA     BYTE      RSTCFG
L251 LINKER/LOCATER V4.66.93.0                                                        03/08/2024  18:54:18  PAGE 29


      000000C7H   SFRSYM    DATA     BYTE      IAP_CONTR
      000000F9H   SFRSYM    DATA     BYTE      LINICR
      0000008EH   SFRSYM    DATA     BYTE      AUXR
      000000AFH   SFRSYM    DATA     BYTE      IE2
      00000088H   SFRSYM    DATA     BYTE      TCON
      00000089H   SFRSYM    DATA     BYTE      TMOD
      00000098H   SFRSYM    DATA     BYTE      SCON
      000000F1H   SFRSYM    DATA     BYTE      CANICR
      00000087H   SFRSYM    DATA     BYTE      PCON
      000000BCH   SFRSYM    DATA     BYTE      ADC_CONTR
      000000E7H   SFRSYM    DATA     BYTE      CMPCR2
      000000E6H   SFRSYM    DATA     BYTE      CMPCR1
      000000DEH   SFRSYM    DATA     BYTE      ADCCFG
      000000B8H   SFRSYM    DATA     BYTE      IP
      0000008FH   SFRSYM    DATA     BYTE      INTCLKO
      000000EEH   SFRSYM    DATA     BYTE      IP3H
      000000B6H   SFRSYM    DATA     BYTE      IP2H
      000000BDH   SFRSYM    DATA     BYTE      ADC_RES
      000000A8H   SFRSYM    DATA     BYTE      IE
      000000BBH   SFRSYM    DATA     BYTE      P_SW3
      000000BAH   SFRSYM    DATA     BYTE      P_SW2
      000000A2H   SFRSYM    DATA     BYTE      P_SW1
      000000CEH   SFRSYM    DATA     BYTE      SPCTL
      000000F8H   SFRSYM    DATA     BYTE      P7
      000000E8H   SFRSYM    DATA     BYTE      P6
      000000C8H   SFRSYM    DATA     BYTE      P5
      000000C0H   SFRSYM    DATA     BYTE      P4
      000000B0H   SFRSYM    DATA     BYTE      P3
      000000A0H   SFRSYM    DATA     BYTE      P2
      00000090H   SFRSYM    DATA     BYTE      P1
      00000080H   SFRSYM    DATA     BYTE      P0
      00000091H   SFRSYM    DATA     BYTE      P1M1
      00000092H   SFRSYM    DATA     BYTE      P1M0
      00000093H   SFRSYM    DATA     BYTE      P0M1
      WR4         REGSYM    ---      INT       adcn
      WR2         REGSYM    ---      INT       speed
      WR6         REGSYM    ---      INT       adcn
      WR4         REGSYM    ---      INT       resolution
      WR6         REGSYM    ---      WORD      adc_value

      ---         MODULE    ---      ---       delay
      00FF515FH   PUBLIC    CODE     ---       delay_init
      00FF528CH   PUBLIC    CODE     ---       delay_ms
      00FF535CH   PUBLIC    CODE     ---       delay_us
      0000044EH   PUBLIC    EDATA    WORD      the_delay_us
      00000450H   PUBLIC    EDATA    WORD      the_delay_ms
      000000D0H   SFRSYM    DATA     BYTE      PSW
      0000009DH   SFRSYM    DATA     BYTE      IRCBAND
      00000097H   SFRSYM    DATA     BYTE      AUXR2
      000000EFH   SFRSYM    DATA     BYTE      AUXINTIF
      000000FDH   SFRSYM    DATA     BYTE      S4CON
      000000ACH   SFRSYM    DATA     BYTE      S3CON
      0000009AH   SFRSYM    DATA     BYTE      S2CON
      000000B7H   SFRSYM    DATA     BYTE      IPH
      000000CDH   SFRSYM    DATA     BYTE      SPSTAT
      000000DDH   SFRSYM    DATA     BYTE      T4T3M
      000000C1H   SFRSYM    DATA     BYTE      WDT_CONTR
      000000DFH   SFRSYM    DATA     BYTE      IP3
      000000F4H   SFRSYM    DATA     BYTE      USBCON
      000000B5H   SFRSYM    DATA     BYTE      IP2
      000000FFH   SFRSYM    DATA     BYTE      RSTCFG
      000000C7H   SFRSYM    DATA     BYTE      IAP_CONTR
      000000F9H   SFRSYM    DATA     BYTE      LINICR
      0000008EH   SFRSYM    DATA     BYTE      AUXR
      000000AFH   SFRSYM    DATA     BYTE      IE2
L251 LINKER/LOCATER V4.66.93.0                                                        03/08/2024  18:54:18  PAGE 30


      00000088H   SFRSYM    DATA     BYTE      TCON
      00000089H   SFRSYM    DATA     BYTE      TMOD
      00000098H   SFRSYM    DATA     BYTE      SCON
      000000F1H   SFRSYM    DATA     BYTE      CANICR
      00000087H   SFRSYM    DATA     BYTE      PCON
      000000BCH   SFRSYM    DATA     BYTE      ADC_CONTR
      000000E7H   SFRSYM    DATA     BYTE      CMPCR2
      000000E6H   SFRSYM    DATA     BYTE      CMPCR1
      000000DEH   SFRSYM    DATA     BYTE      ADCCFG
      000000B8H   SFRSYM    DATA     BYTE      IP
      0000008FH   SFRSYM    DATA     BYTE      INTCLKO
      000000EEH   SFRSYM    DATA     BYTE      IP3H
      000000B6H   SFRSYM    DATA     BYTE      IP2H
      000000A8H   SFRSYM    DATA     BYTE      IE
      000000BBH   SFRSYM    DATA     BYTE      P_SW3
      000000BAH   SFRSYM    DATA     BYTE      P_SW2
      000000A2H   SFRSYM    DATA     BYTE      P_SW1
      000000CEH   SFRSYM    DATA     BYTE      SPCTL
      000000F8H   SFRSYM    DATA     BYTE      P7
      000000E8H   SFRSYM    DATA     BYTE      P6
      000000C8H   SFRSYM    DATA     BYTE      P5
      000000C0H   SFRSYM    DATA     BYTE      P4
      000000B0H   SFRSYM    DATA     BYTE      P3
      000000A0H   SFRSYM    DATA     BYTE      P2
      00000090H   SFRSYM    DATA     BYTE      P1
      00000080H   SFRSYM    DATA     BYTE      P0

      00FF515FH   BLOCK     CODE     ---       LVL=0
      00FF515FH   LINE      CODE     ---       #22
      00FF515FH   LINE      CODE     ---       #24
      00FF5170H   LINE      CODE     ---       #25
      00FF5181H   LINE      CODE     ---       #26
      ---         BLOCKEND  ---      ---       LVL=0

      00FF528CH   BLOCK     CODE     ---       LVL=0
      WR4         REGSYM    ---      WORD      ms
      00FF528EH   BLOCK     CODE     NEAR LAB  LVL=1
      000003FEH   SYMBOL    EDATA    WORD      i
      ---         BLOCKEND  ---      ---       LVL=1
      00FF528CH   LINE      CODE     ---       #34
      00FF528EH   LINE      CODE     ---       #35
      00FF528EH   LINE      CODE     ---       #37
      00FF528EH   LINE      CODE     ---       #38
      00FF5296H   LINE      CODE     ---       #39
      00FF52A2H   LINE      CODE     ---       #40
      00FF52AAH   LINE      CODE     ---       #41
      ---         BLOCKEND  ---      ---       LVL=0

      00FF535CH   BLOCK     CODE     ---       LVL=0
      DR0         REGSYM    ---      DWORD     us
      00FF535EH   BLOCK     CODE     NEAR LAB  LVL=1
      WR6         REGSYM    ---      WORD      i
      ---         BLOCKEND  ---      ---       LVL=1
      00FF535CH   LINE      CODE     ---       #49
      00FF535EH   LINE      CODE     ---       #50
      00FF535EH   LINE      CODE     ---       #52
      00FF535EH   LINE      CODE     ---       #53
      00FF5362H   LINE      CODE     ---       #54
      00FF536AH   LINE      CODE     ---       #55
      00FF5374H   LINE      CODE     ---       #56
      ---         BLOCKEND  ---      ---       LVL=0

      ---         MODULE    ---      ---       eeprom
      000000D0H   SFRSYM    DATA     BYTE      PSW
      0000009DH   SFRSYM    DATA     BYTE      IRCBAND
L251 LINKER/LOCATER V4.66.93.0                                                        03/08/2024  18:54:18  PAGE 31


      000000D0H.5 SFRSYM    DATA     BIT       F0
      00000097H   SFRSYM    DATA     BYTE      AUXR2
      000000C6H   SFRSYM    DATA     BYTE      IAP_TRIG
      000000EFH   SFRSYM    DATA     BYTE      AUXINTIF
      000000FDH   SFRSYM    DATA     BYTE      S4CON
      000000ACH   SFRSYM    DATA     BYTE      S3CON
      0000009AH   SFRSYM    DATA     BYTE      S2CON
      000000B7H   SFRSYM    DATA     BYTE      IPH
      000000CDH   SFRSYM    DATA     BYTE      SPSTAT
      000000DDH   SFRSYM    DATA     BYTE      T4T3M
      000000C1H   SFRSYM    DATA     BYTE      WDT_CONTR
      000000C2H   SFRSYM    DATA     BYTE      IAP_DATA
      000000DFH   SFRSYM    DATA     BYTE      IP3
      000000F4H   SFRSYM    DATA     BYTE      USBCON
      000000B5H   SFRSYM    DATA     BYTE      IP2
      000000FFH   SFRSYM    DATA     BYTE      RSTCFG
      000000C7H   SFRSYM    DATA     BYTE      IAP_CONTR
      000000F9H   SFRSYM    DATA     BYTE      LINICR
      0000008EH   SFRSYM    DATA     BYTE      AUXR
      000000AFH   SFRSYM    DATA     BYTE      IE2
      00000088H   SFRSYM    DATA     BYTE      TCON
      00000089H   SFRSYM    DATA     BYTE      TMOD
      00000098H   SFRSYM    DATA     BYTE      SCON
      000000F5H   SFRSYM    DATA     BYTE      IAP_TPS
      000000F1H   SFRSYM    DATA     BYTE      CANICR
      00000087H   SFRSYM    DATA     BYTE      PCON
      000000BCH   SFRSYM    DATA     BYTE      ADC_CONTR
      000000E7H   SFRSYM    DATA     BYTE      CMPCR2
      000000E6H   SFRSYM    DATA     BYTE      CMPCR1
      000000C4H   SFRSYM    DATA     BYTE      IAP_ADDRL
      000000C3H   SFRSYM    DATA     BYTE      IAP_ADDRH
      000000F6H   SFRSYM    DATA     BYTE      IAP_ADDRE
      000000DEH   SFRSYM    DATA     BYTE      ADCCFG
      000000B8H   SFRSYM    DATA     BYTE      IP
      0000008FH   SFRSYM    DATA     BYTE      INTCLKO
      000000EEH   SFRSYM    DATA     BYTE      IP3H
      000000B6H   SFRSYM    DATA     BYTE      IP2H
      000000C5H   SFRSYM    DATA     BYTE      IAP_CMD
      000000A8H   SFRSYM    DATA     BYTE      IE
      000000BBH   SFRSYM    DATA     BYTE      P_SW3
      000000BAH   SFRSYM    DATA     BYTE      P_SW2
      000000A2H   SFRSYM    DATA     BYTE      P_SW1
      000000CEH   SFRSYM    DATA     BYTE      SPCTL
      000000F8H   SFRSYM    DATA     BYTE      P7
      000000A8H.7 SFRSYM    DATA     BIT       EA
      000000E8H   SFRSYM    DATA     BYTE      P6
      000000C8H   SFRSYM    DATA     BYTE      P5
      000000C0H   SFRSYM    DATA     BYTE      P4
      000000B0H   SFRSYM    DATA     BYTE      P3
      000000A0H   SFRSYM    DATA     BYTE      P2
      00000090H   SFRSYM    DATA     BYTE      P1
      00000080H   SFRSYM    DATA     BYTE      P0
      R11         REGSYM    ---      BYTE      write_time
      DR12        REGSYM    ---      DWORD     addr
      DR12        REGSYM    ---      DWORD     addr
      DR0         REGSYM    ---      DWORD     addr

      ---         MODULE    ---      ---       exti
      000000D0H   SFRSYM    DATA     BYTE      PSW
      0000009DH   SFRSYM    DATA     BYTE      IRCBAND
      00000097H   SFRSYM    DATA     BYTE      AUXR2
      000000EFH   SFRSYM    DATA     BYTE      AUXINTIF
      000000FDH   SFRSYM    DATA     BYTE      S4CON
      000000ACH   SFRSYM    DATA     BYTE      S3CON
      0000009AH   SFRSYM    DATA     BYTE      S2CON
L251 LINKER/LOCATER V4.66.93.0                                                        03/08/2024  18:54:18  PAGE 32


      000000B7H   SFRSYM    DATA     BYTE      IPH
      000000CDH   SFRSYM    DATA     BYTE      SPSTAT
      000000DDH   SFRSYM    DATA     BYTE      T4T3M
      000000C1H   SFRSYM    DATA     BYTE      WDT_CONTR
      00000088H.2 SFRSYM    DATA     BIT       IT1
      000000A8H.2 SFRSYM    DATA     BIT       EX1
      00000088H.0 SFRSYM    DATA     BIT       IT0
      000000A8H.0 SFRSYM    DATA     BIT       EX0
      000000DFH   SFRSYM    DATA     BYTE      IP3
      000000F4H   SFRSYM    DATA     BYTE      USBCON
      000000B5H   SFRSYM    DATA     BYTE      IP2
      000000FFH   SFRSYM    DATA     BYTE      RSTCFG
      000000C7H   SFRSYM    DATA     BYTE      IAP_CONTR
      000000F9H   SFRSYM    DATA     BYTE      LINICR
      0000008EH   SFRSYM    DATA     BYTE      AUXR
      000000AFH   SFRSYM    DATA     BYTE      IE2
      00000088H   SFRSYM    DATA     BYTE      TCON
      00000089H   SFRSYM    DATA     BYTE      TMOD
      00000098H   SFRSYM    DATA     BYTE      SCON
      000000F1H   SFRSYM    DATA     BYTE      CANICR
      00000087H   SFRSYM    DATA     BYTE      PCON
      000000BCH   SFRSYM    DATA     BYTE      ADC_CONTR
      000000E7H   SFRSYM    DATA     BYTE      CMPCR2
      000000E6H   SFRSYM    DATA     BYTE      CMPCR1
      000000DEH   SFRSYM    DATA     BYTE      ADCCFG
      000000B8H   SFRSYM    DATA     BYTE      IP
      0000008FH   SFRSYM    DATA     BYTE      INTCLKO
      000000EEH   SFRSYM    DATA     BYTE      IP3H
      000000B6H   SFRSYM    DATA     BYTE      IP2H
      000000A8H   SFRSYM    DATA     BYTE      IE
      000000BBH   SFRSYM    DATA     BYTE      P_SW3
      000000BAH   SFRSYM    DATA     BYTE      P_SW2
      000000A2H   SFRSYM    DATA     BYTE      P_SW1
      000000CEH   SFRSYM    DATA     BYTE      SPCTL
      000000F8H   SFRSYM    DATA     BYTE      P7
      000000E8H   SFRSYM    DATA     BYTE      P6
      000000C8H   SFRSYM    DATA     BYTE      P5
      000000C0H   SFRSYM    DATA     BYTE      P4
      000000B0H   SFRSYM    DATA     BYTE      P3
      000000A0H   SFRSYM    DATA     BYTE      P2
      00000090H   SFRSYM    DATA     BYTE      P1
      00000080H   SFRSYM    DATA     BYTE      P0
      WR4         REGSYM    ---      INT       int_n
      WR2         REGSYM    ---      INT       mode

      ---         MODULE    ---      ---       fifo
      00FF4D47H   PUBLIC    CODE     ---       fifo_head_offset
      00FF4840H   PUBLIC    CODE     ---       fifo_write_buffer
      000003EEH   PUBLIC    EDATA    BYTE      ?fifo_write_buffer?BYTE
      000000D0H   SFRSYM    DATA     BYTE      PSW
      0000009DH   SFRSYM    DATA     BYTE      IRCBAND
      00000097H   SFRSYM    DATA     BYTE      AUXR2
      000000EFH   SFRSYM    DATA     BYTE      AUXINTIF
      000000FDH   SFRSYM    DATA     BYTE      S4CON
      000000ACH   SFRSYM    DATA     BYTE      S3CON
      0000009AH   SFRSYM    DATA     BYTE      S2CON
      000000B7H   SFRSYM    DATA     BYTE      IPH
      000000CDH   SFRSYM    DATA     BYTE      SPSTAT
      000000DDH   SFRSYM    DATA     BYTE      T4T3M
      000000C1H   SFRSYM    DATA     BYTE      WDT_CONTR
      000000DFH   SFRSYM    DATA     BYTE      IP3
      000000F4H   SFRSYM    DATA     BYTE      USBCON
      000000B5H   SFRSYM    DATA     BYTE      IP2
      000000FFH   SFRSYM    DATA     BYTE      RSTCFG
      000000C7H   SFRSYM    DATA     BYTE      IAP_CONTR
L251 LINKER/LOCATER V4.66.93.0                                                        03/08/2024  18:54:18  PAGE 33


      000000F9H   SFRSYM    DATA     BYTE      LINICR
      0000008EH   SFRSYM    DATA     BYTE      AUXR
      000000AFH   SFRSYM    DATA     BYTE      IE2
      00000088H   SFRSYM    DATA     BYTE      TCON
      00000089H   SFRSYM    DATA     BYTE      TMOD
      00000098H   SFRSYM    DATA     BYTE      SCON
      000000F1H   SFRSYM    DATA     BYTE      CANICR
      00000087H   SFRSYM    DATA     BYTE      PCON
      000000BCH   SFRSYM    DATA     BYTE      ADC_CONTR
      000000E7H   SFRSYM    DATA     BYTE      CMPCR2
      000000E6H   SFRSYM    DATA     BYTE      CMPCR1
      000000DEH   SFRSYM    DATA     BYTE      ADCCFG
      000000B8H   SFRSYM    DATA     BYTE      IP
      0000008FH   SFRSYM    DATA     BYTE      INTCLKO
      000000EEH   SFRSYM    DATA     BYTE      IP3H
      000000B6H   SFRSYM    DATA     BYTE      IP2H
      000000A8H   SFRSYM    DATA     BYTE      IE
      000000BBH   SFRSYM    DATA     BYTE      P_SW3
      000000BAH   SFRSYM    DATA     BYTE      P_SW2
      000000A2H   SFRSYM    DATA     BYTE      P_SW1
      000000CEH   SFRSYM    DATA     BYTE      SPCTL
      000000F8H   SFRSYM    DATA     BYTE      P7
      000000E8H   SFRSYM    DATA     BYTE      P6
      000000C8H   SFRSYM    DATA     BYTE      P5
      000000C0H   SFRSYM    DATA     BYTE      P4
      000000B0H   SFRSYM    DATA     BYTE      P3
      000000A0H   SFRSYM    DATA     BYTE      P2
      00000090H   SFRSYM    DATA     BYTE      P1
      00000080H   SFRSYM    DATA     BYTE      P0
      REG=2       REGSYM    ---      ---       fifo
      REG=7       REGSYM    ---      ---       buffer_addr

      00FF4D47H   BLOCK     CODE     ---       LVL=0
      REG=7       REGSYM    ---      ---       fifo
      DR24        REGSYM    ---      DWORD     offset
      00FF4D47H   LINE      CODE     ---       #46
      00FF4D4BH   LINE      CODE     ---       #48
      00FF4D56H   LINE      CODE     ---       #50
      00FF4D58H   LINE      CODE     ---       #52
      00FF4D74H   LINE      CODE     ---       #53
      00FF4D88H   LINE      CODE     ---       #54
      ---         BLOCKEND  ---      ---       LVL=0
      REG=7       REGSYM    ---      ---       fifo
      DR24        REGSYM    ---      DWORD     offset
      REG=2       REGSYM    ---      ---       fifo
      REG=7       REGSYM    ---      ---       fifo

      00FF4840H   BLOCK     CODE     ---       LVL=0
      REG=3       REGSYM    ---      ---       fifo
      000003F2H   SYMBOL    EDATA    ---       dat
      000003F6H   SYMBOL    EDATA    DWORD     length
      00FF4848H   BLOCK     CODE     NEAR LAB  LVL=1
      000003FAH   SYMBOL    EDATA    DWORD     temp_length
      ---         BLOCKEND  ---      ---       LVL=1
      00FF4840H   LINE      CODE     ---       #105
      00FF4848H   LINE      CODE     ---       #106
      00FF4848H   LINE      CODE     ---       #109
      00FF485BH   LINE      CODE     ---       #111
      00FF4871H   LINE      CODE     ---       #113
      00FF4875H   LINE      CODE     ---       #115
      00FF488DH   LINE      CODE     ---       #116
      00FF4896H   LINE      CODE     ---       #117
      00FF48A6H   LINE      CODE     ---       #118
      00FF48C6H   LINE      CODE     ---       #119
      00FF48D2H   LINE      CODE     ---       #120
L251 LINKER/LOCATER V4.66.93.0                                                        03/08/2024  18:54:18  PAGE 34


      00FF48D4H   LINE      CODE     ---       #123
      00FF48F0H   LINE      CODE     ---       #124
      00FF48F9H   LINE      CODE     ---       #125
      00FF48F9H   LINE      CODE     ---       #127
      00FF4913H   LINE      CODE     ---       #128
      00FF4915H   LINE      CODE     ---       #131
      00FF491BH   LINE      CODE     ---       #132
      00FF491BH   LINE      CODE     ---       #134
      00FF491DH   LINE      CODE     ---       #135
      ---         BLOCKEND  ---      ---       LVL=0
      REG=3       REGSYM    ---      ---       fifo

      ---         MODULE    ---      ---       gpio
      00FF428AH   PUBLIC    CODE     ---       gpio_mode
      00000094H   SFRSYM    DATA     BYTE      P0M0
      000000D0H   SFRSYM    DATA     BYTE      PSW
      0000009DH   SFRSYM    DATA     BYTE      IRCBAND
      00000097H   SFRSYM    DATA     BYTE      AUXR2
      000000EFH   SFRSYM    DATA     BYTE      AUXINTIF
      000000FDH   SFRSYM    DATA     BYTE      S4CON
      000000ACH   SFRSYM    DATA     BYTE      S3CON
      0000009AH   SFRSYM    DATA     BYTE      S2CON
      000000B7H   SFRSYM    DATA     BYTE      IPH
      000000CDH   SFRSYM    DATA     BYTE      SPSTAT
      000000DDH   SFRSYM    DATA     BYTE      T4T3M
      000000C1H   SFRSYM    DATA     BYTE      WDT_CONTR
      000000DFH   SFRSYM    DATA     BYTE      IP3
      000000F4H   SFRSYM    DATA     BYTE      USBCON
      000000B5H   SFRSYM    DATA     BYTE      IP2
      000000FFH   SFRSYM    DATA     BYTE      RSTCFG
      000000C7H   SFRSYM    DATA     BYTE      IAP_CONTR
      000000F9H   SFRSYM    DATA     BYTE      LINICR
      0000008EH   SFRSYM    DATA     BYTE      AUXR
      000000AFH   SFRSYM    DATA     BYTE      IE2
      00000088H   SFRSYM    DATA     BYTE      TCON
      00000089H   SFRSYM    DATA     BYTE      TMOD
      00000098H   SFRSYM    DATA     BYTE      SCON
      000000F1H   SFRSYM    DATA     BYTE      CANICR
      00000087H   SFRSYM    DATA     BYTE      PCON
      000000BCH   SFRSYM    DATA     BYTE      ADC_CONTR
      000000E7H   SFRSYM    DATA     BYTE      CMPCR2
      000000E6H   SFRSYM    DATA     BYTE      CMPCR1
      000000DEH   SFRSYM    DATA     BYTE      ADCCFG
      000000B8H   SFRSYM    DATA     BYTE      IP
      0000008FH   SFRSYM    DATA     BYTE      INTCLKO
      000000EEH   SFRSYM    DATA     BYTE      IP3H
      000000B6H   SFRSYM    DATA     BYTE      IP2H
      000000A8H   SFRSYM    DATA     BYTE      IE
      000000BBH   SFRSYM    DATA     BYTE      P_SW3
      000000BAH   SFRSYM    DATA     BYTE      P_SW2
      000000A2H   SFRSYM    DATA     BYTE      P_SW1
      000000CEH   SFRSYM    DATA     BYTE      SPCTL
      000000F8H   SFRSYM    DATA     BYTE      P7
      000000E1H   SFRSYM    DATA     BYTE      P7M1
      000000E8H   SFRSYM    DATA     BYTE      P6
      000000C8H   SFRSYM    DATA     BYTE      P5
      000000CBH   SFRSYM    DATA     BYTE      P6M1
      000000E2H   SFRSYM    DATA     BYTE      P7M0
      000000C0H   SFRSYM    DATA     BYTE      P4
      000000C9H   SFRSYM    DATA     BYTE      P5M1
      000000CCH   SFRSYM    DATA     BYTE      P6M0
      000000B0H   SFRSYM    DATA     BYTE      P3
      000000B3H   SFRSYM    DATA     BYTE      P4M1
      000000CAH   SFRSYM    DATA     BYTE      P5M0
      000000A0H   SFRSYM    DATA     BYTE      P2
L251 LINKER/LOCATER V4.66.93.0                                                        03/08/2024  18:54:18  PAGE 35


      000000B1H   SFRSYM    DATA     BYTE      P3M1
      000000B4H   SFRSYM    DATA     BYTE      P4M0
      00000090H   SFRSYM    DATA     BYTE      P1
      00000095H   SFRSYM    DATA     BYTE      P2M1
      000000B2H   SFRSYM    DATA     BYTE      P3M0
      00000080H   SFRSYM    DATA     BYTE      P0
      00000091H   SFRSYM    DATA     BYTE      P1M1
      00000096H   SFRSYM    DATA     BYTE      P2M0
      00000092H   SFRSYM    DATA     BYTE      P1M0
      00000093H   SFRSYM    DATA     BYTE      P0M1
      WR4         REGSYM    ---      INT       pin
      WR2         REGSYM    ---      INT       pull

      00FF428AH   BLOCK     CODE     ---       LVL=0
      WR4         REGSYM    ---      INT       pin
      WR2         REGSYM    ---      INT       mode
      00FF428AH   LINE      CODE     ---       #41
      00FF428EH   LINE      CODE     ---       #43
      00FF4295H   LINE      CODE     ---       #45
      00FF429DH   LINE      CODE     ---       #47
      00FF42B5H   LINE      CODE     ---       #48
      00FF42B7H   LINE      CODE     ---       #49
      00FF42B7H   LINE      CODE     ---       #50
      00FF42BDH   LINE      CODE     ---       #52
      00FF42D5H   LINE      CODE     ---       #53
      00FF42D7H   LINE      CODE     ---       #54
      00FF42D7H   LINE      CODE     ---       #55
      00FF42DDH   LINE      CODE     ---       #57
      00FF42F5H   LINE      CODE     ---       #58
      00FF42F7H   LINE      CODE     ---       #59
      00FF42F7H   LINE      CODE     ---       #61
      00FF42FDH   LINE      CODE     ---       #63
      00FF4315H   LINE      CODE     ---       #64
      00FF4317H   LINE      CODE     ---       #65
      00FF4317H   LINE      CODE     ---       #66
      00FF431DH   LINE      CODE     ---       #68
      00FF4335H   LINE      CODE     ---       #69
      00FF4337H   LINE      CODE     ---       #70
      00FF4337H   LINE      CODE     ---       #71
      00FF433DH   LINE      CODE     ---       #73
      00FF4355H   LINE      CODE     ---       #74
      00FF4357H   LINE      CODE     ---       #75
      00FF4357H   LINE      CODE     ---       #76
      00FF435DH   LINE      CODE     ---       #78
      00FF4375H   LINE      CODE     ---       #79
      00FF4377H   LINE      CODE     ---       #80
      00FF4377H   LINE      CODE     ---       #81
      00FF4380H   LINE      CODE     ---       #83
      00FF4398H   LINE      CODE     ---       #84
      00FF439AH   LINE      CODE     ---       #85
      00FF439BH   LINE      CODE     ---       #87
      00FF43A4H   LINE      CODE     ---       #89
      00FF43ACH   LINE      CODE     ---       #91
      00FF43C1H   LINE      CODE     ---       #92
      00FF43C5H   LINE      CODE     ---       #93
      00FF43C5H   LINE      CODE     ---       #94
      00FF43CBH   LINE      CODE     ---       #96
      00FF43E0H   LINE      CODE     ---       #97
      00FF43E4H   LINE      CODE     ---       #98
      00FF43E4H   LINE      CODE     ---       #99
      00FF43EAH   LINE      CODE     ---       #101
      00FF43FFH   LINE      CODE     ---       #102
      00FF4403H   LINE      CODE     ---       #103
      00FF4403H   LINE      CODE     ---       #105
      00FF4409H   LINE      CODE     ---       #107
L251 LINKER/LOCATER V4.66.93.0                                                        03/08/2024  18:54:18  PAGE 36


      00FF441EH   LINE      CODE     ---       #108
      00FF4422H   LINE      CODE     ---       #109
      00FF4422H   LINE      CODE     ---       #110
      00FF4428H   LINE      CODE     ---       #112
      00FF443DH   LINE      CODE     ---       #113
      00FF4441H   LINE      CODE     ---       #114
      00FF4441H   LINE      CODE     ---       #115
      00FF4447H   LINE      CODE     ---       #117
      00FF445CH   LINE      CODE     ---       #118
      00FF4460H   LINE      CODE     ---       #119
      00FF4460H   LINE      CODE     ---       #120
      00FF4466H   LINE      CODE     ---       #122
      00FF447BH   LINE      CODE     ---       #123
      00FF447FH   LINE      CODE     ---       #124
      00FF447FH   LINE      CODE     ---       #125
      00FF4488H   LINE      CODE     ---       #127
      00FF449FH   LINE      CODE     ---       #128
      00FF449FH   LINE      CODE     ---       #129
      00FF44A2H   LINE      CODE     ---       #132
      00FF44ABH   LINE      CODE     ---       #134
      00FF44B3H   LINE      CODE     ---       #136
      00FF44C6H   LINE      CODE     ---       #137
      00FF44CAH   LINE      CODE     ---       #138
      00FF44CAH   LINE      CODE     ---       #139
      00FF44D0H   LINE      CODE     ---       #141
      00FF44E3H   LINE      CODE     ---       #142
      00FF44E7H   LINE      CODE     ---       #143
      00FF44E7H   LINE      CODE     ---       #144
      00FF44EDH   LINE      CODE     ---       #146
      00FF4500H   LINE      CODE     ---       #147
      00FF4504H   LINE      CODE     ---       #148
      00FF4504H   LINE      CODE     ---       #150
      00FF450AH   LINE      CODE     ---       #152
      00FF451DH   LINE      CODE     ---       #153
      00FF4521H   LINE      CODE     ---       #154
      00FF4521H   LINE      CODE     ---       #155
      00FF4527H   LINE      CODE     ---       #157
      00FF453AH   LINE      CODE     ---       #158
      00FF453EH   LINE      CODE     ---       #159
      00FF453EH   LINE      CODE     ---       #160
      00FF4544H   LINE      CODE     ---       #162
      00FF4557H   LINE      CODE     ---       #163
      00FF455BH   LINE      CODE     ---       #164
      00FF455BH   LINE      CODE     ---       #165
      00FF4561H   LINE      CODE     ---       #167
      00FF4574H   LINE      CODE     ---       #168
      00FF4578H   LINE      CODE     ---       #169
      00FF4578H   LINE      CODE     ---       #170
      00FF4581H   LINE      CODE     ---       #172
      00FF4594H   LINE      CODE     ---       #173
      00FF4598H   LINE      CODE     ---       #174
      00FF4599H   LINE      CODE     ---       #176
      00FF45A2H   LINE      CODE     ---       #178
      00FF45AAH   LINE      CODE     ---       #180
      00FF45BDH   LINE      CODE     ---       #181
      00FF45BFH   LINE      CODE     ---       #182
      00FF45BFH   LINE      CODE     ---       #183
      00FF45C5H   LINE      CODE     ---       #185
      00FF45D8H   LINE      CODE     ---       #186
      00FF45DAH   LINE      CODE     ---       #187
      00FF45DAH   LINE      CODE     ---       #188
      00FF45E0H   LINE      CODE     ---       #190
      00FF45F3H   LINE      CODE     ---       #191
      00FF45F5H   LINE      CODE     ---       #192
      00FF45F5H   LINE      CODE     ---       #194
L251 LINKER/LOCATER V4.66.93.0                                                        03/08/2024  18:54:18  PAGE 37


      00FF45FBH   LINE      CODE     ---       #196
      00FF460EH   LINE      CODE     ---       #197
      00FF4610H   LINE      CODE     ---       #198
      00FF4610H   LINE      CODE     ---       #199
      00FF4616H   LINE      CODE     ---       #201
      00FF4629H   LINE      CODE     ---       #202
      00FF462BH   LINE      CODE     ---       #203
      00FF462BH   LINE      CODE     ---       #204
      00FF4631H   LINE      CODE     ---       #206
      00FF4644H   LINE      CODE     ---       #207
      00FF4646H   LINE      CODE     ---       #208
      00FF4646H   LINE      CODE     ---       #209
      00FF464CH   LINE      CODE     ---       #211
      00FF465FH   LINE      CODE     ---       #212
      00FF4661H   LINE      CODE     ---       #213
      00FF4661H   LINE      CODE     ---       #214
      00FF4667H   LINE      CODE     ---       #216
      00FF467CH   LINE      CODE     ---       #217
      00FF4680H   LINE      CODE     ---       #218
      00FF4680H   LINE      CODE     ---       #220
      ---         BLOCKEND  ---      ---       LVL=0

      ---         MODULE    ---      ---       iic
      00FF4D02H   PUBLIC    CODE     ---       wait
      00FF53D7H   PUBLIC    CODE     ---       iic_delay_us
      000000D0H   SFRSYM    DATA     BYTE      PSW
      0000009DH   SFRSYM    DATA     BYTE      IRCBAND
      00000097H   SFRSYM    DATA     BYTE      AUXR2
      000000EFH   SFRSYM    DATA     BYTE      AUXINTIF
      000000FDH   SFRSYM    DATA     BYTE      S4CON
      000000ACH   SFRSYM    DATA     BYTE      S3CON
      0000009AH   SFRSYM    DATA     BYTE      S2CON
      000000B7H   SFRSYM    DATA     BYTE      IPH
      000000CDH   SFRSYM    DATA     BYTE      SPSTAT
      000000DDH   SFRSYM    DATA     BYTE      T4T3M
      000000C1H   SFRSYM    DATA     BYTE      WDT_CONTR
      000000DFH   SFRSYM    DATA     BYTE      IP3
      000000F4H   SFRSYM    DATA     BYTE      USBCON
      000000B5H   SFRSYM    DATA     BYTE      IP2
      000000FFH   SFRSYM    DATA     BYTE      RSTCFG
      000000C7H   SFRSYM    DATA     BYTE      IAP_CONTR
      000000F9H   SFRSYM    DATA     BYTE      LINICR
      0000008EH   SFRSYM    DATA     BYTE      AUXR
      000000AFH   SFRSYM    DATA     BYTE      IE2
      00000088H   SFRSYM    DATA     BYTE      TCON
      00000089H   SFRSYM    DATA     BYTE      TMOD
      00000098H   SFRSYM    DATA     BYTE      SCON
      000000F1H   SFRSYM    DATA     BYTE      CANICR
      00000087H   SFRSYM    DATA     BYTE      PCON
      000000BCH   SFRSYM    DATA     BYTE      ADC_CONTR
      000000E7H   SFRSYM    DATA     BYTE      CMPCR2
      000000E6H   SFRSYM    DATA     BYTE      CMPCR1
      000000DEH   SFRSYM    DATA     BYTE      ADCCFG
      000000B8H   SFRSYM    DATA     BYTE      IP
      0000008FH   SFRSYM    DATA     BYTE      INTCLKO
      000000EEH   SFRSYM    DATA     BYTE      IP3H
      000000B6H   SFRSYM    DATA     BYTE      IP2H
      000000A8H   SFRSYM    DATA     BYTE      IE
      000000BBH   SFRSYM    DATA     BYTE      P_SW3
      000000BAH   SFRSYM    DATA     BYTE      P_SW2
      000000A2H   SFRSYM    DATA     BYTE      P_SW1
      000000CEH   SFRSYM    DATA     BYTE      SPCTL
      000000F8H   SFRSYM    DATA     BYTE      P7
      000000E8H   SFRSYM    DATA     BYTE      P6
      000000C8H   SFRSYM    DATA     BYTE      P5
L251 LINKER/LOCATER V4.66.93.0                                                        03/08/2024  18:54:18  PAGE 38


      000000C0H   SFRSYM    DATA     BYTE      P4
      000000B0H   SFRSYM    DATA     BYTE      P3
      000000A0H   SFRSYM    DATA     BYTE      P2
      00000090H   SFRSYM    DATA     BYTE      P1
      00000080H   SFRSYM    DATA     BYTE      P0

      00FF53D7H   BLOCK     CODE     ---       LVL=0
      WR6         REGSYM    ---      WORD      x
      R10         REGSYM    ---      BYTE      i
      00FF53D7H   LINE      CODE     ---       #19
      00FF53D7H   LINE      CODE     ---       #20
      00FF53D7H   LINE      CODE     ---       #22
      00FF53D9H   LINE      CODE     ---       #24
      00FF53DCH   LINE      CODE     ---       #25
      00FF53E3H   LINE      CODE     ---       #26
      00FF53EBH   LINE      CODE     ---       #27
      ---         BLOCKEND  ---      ---       LVL=0

      00FF4D02H   BLOCK     CODE     ---       LVL=0
      00FF4D06H   BLOCK     CODE     NEAR LAB  LVL=1
      WR12        REGSYM    ---      WORD      count
      R15         REGSYM    ---      BYTE      ret
      ---         BLOCKEND  ---      ---       LVL=1
      00FF4D02H   LINE      CODE     ---       #36
      00FF4D06H   LINE      CODE     ---       #37
      00FF4D06H   LINE      CODE     ---       #38
      00FF4D08H   LINE      CODE     ---       #39
      00FF4D0AH   LINE      CODE     ---       #40
      00FF4D0CH   LINE      CODE     ---       #42
      00FF4D13H   LINE      CODE     ---       #43
      00FF4D1DH   LINE      CODE     ---       #45
      00FF4D20H   LINE      CODE     ---       #46
      00FF4D22H   LINE      CODE     ---       #47
      00FF4D30H   LINE      CODE     ---       #49
      00FF4D40H   LINE      CODE     ---       #50
      00FF4D42H   LINE      CODE     ---       #51
      ---         BLOCKEND  ---      ---       LVL=0
      R11         REGSYM    ---      BYTE      ret
      R11         REGSYM    ---      CHAR      dat
      R11         REGSYM    ---      BYTE      ret
      R11         REGSYM    ---      BYTE      ret
      R11         REGSYM    ---      BYTE      ret
      R11         REGSYM    ---      BYTE      ret
      WR6         REGSYM    ---      INT       iic_n
      R13         REGSYM    ---      BYTE      dev_add
      R14         REGSYM    ---      BYTE      reg
      R15         REGSYM    ---      BYTE      dat
      R15         REGSYM    ---      BYTE      dev_add
      R14         REGSYM    ---      BYTE      reg
      REG=3       REGSYM    ---      ---       dat
      WR6         REGSYM    ---      INT       iic_n

      ---         MODULE    ---      ---       mdu16
      000000D0H   SFRSYM    DATA     BYTE      PSW
      0000009DH   SFRSYM    DATA     BYTE      IRCBAND
      00000097H   SFRSYM    DATA     BYTE      AUXR2
      000000EFH   SFRSYM    DATA     BYTE      AUXINTIF
      000000FDH   SFRSYM    DATA     BYTE      S4CON
      000000ACH   SFRSYM    DATA     BYTE      S3CON
      0000009AH   SFRSYM    DATA     BYTE      S2CON
      000000B7H   SFRSYM    DATA     BYTE      IPH
      000000CDH   SFRSYM    DATA     BYTE      SPSTAT
      000000DDH   SFRSYM    DATA     BYTE      T4T3M
      000000C1H   SFRSYM    DATA     BYTE      WDT_CONTR
      000000DFH   SFRSYM    DATA     BYTE      IP3
L251 LINKER/LOCATER V4.66.93.0                                                        03/08/2024  18:54:18  PAGE 39


      000000F4H   SFRSYM    DATA     BYTE      USBCON
      000000B5H   SFRSYM    DATA     BYTE      IP2
      000000FFH   SFRSYM    DATA     BYTE      RSTCFG
      000000C7H   SFRSYM    DATA     BYTE      IAP_CONTR
      000000F9H   SFRSYM    DATA     BYTE      LINICR
      0000008EH   SFRSYM    DATA     BYTE      AUXR
      000000AFH   SFRSYM    DATA     BYTE      IE2
      00000088H   SFRSYM    DATA     BYTE      TCON
      00000089H   SFRSYM    DATA     BYTE      TMOD
      00000098H   SFRSYM    DATA     BYTE      SCON
      000000F1H   SFRSYM    DATA     BYTE      CANICR
      00000087H   SFRSYM    DATA     BYTE      PCON
      000000BCH   SFRSYM    DATA     BYTE      ADC_CONTR
      000000E7H   SFRSYM    DATA     BYTE      CMPCR2
      000000E6H   SFRSYM    DATA     BYTE      CMPCR1
      000000DEH   SFRSYM    DATA     BYTE      ADCCFG
      000000B8H   SFRSYM    DATA     BYTE      IP
      0000008FH   SFRSYM    DATA     BYTE      INTCLKO
      000000EEH   SFRSYM    DATA     BYTE      IP3H
      000000B6H   SFRSYM    DATA     BYTE      IP2H
      000000A8H   SFRSYM    DATA     BYTE      IE
      000000BBH   SFRSYM    DATA     BYTE      P_SW3
      000000BAH   SFRSYM    DATA     BYTE      P_SW2
      000000A2H   SFRSYM    DATA     BYTE      P_SW1
      000000CEH   SFRSYM    DATA     BYTE      SPCTL
      000000F8H   SFRSYM    DATA     BYTE      P7
      000000E8H   SFRSYM    DATA     BYTE      P6
      000000C8H   SFRSYM    DATA     BYTE      P5
      000000C0H   SFRSYM    DATA     BYTE      P4
      000000B0H   SFRSYM    DATA     BYTE      P3
      000000A0H   SFRSYM    DATA     BYTE      P2
      00000090H   SFRSYM    DATA     BYTE      P1
      00000080H   SFRSYM    DATA     BYTE      P0

      ---         MODULE    ---      ---       nvic
      000000D0H   SFRSYM    DATA     BYTE      PSW
      0000009DH   SFRSYM    DATA     BYTE      IRCBAND
      00000097H   SFRSYM    DATA     BYTE      AUXR2
      000000EFH   SFRSYM    DATA     BYTE      AUXINTIF
      000000FDH   SFRSYM    DATA     BYTE      S4CON
      000000ACH   SFRSYM    DATA     BYTE      S3CON
      0000009AH   SFRSYM    DATA     BYTE      S2CON
      000000B7H   SFRSYM    DATA     BYTE      IPH
      000000CDH   SFRSYM    DATA     BYTE      SPSTAT
      000000DDH   SFRSYM    DATA     BYTE      T4T3M
      000000C1H   SFRSYM    DATA     BYTE      WDT_CONTR
      000000DFH   SFRSYM    DATA     BYTE      IP3
      000000F4H   SFRSYM    DATA     BYTE      USBCON
      000000B5H   SFRSYM    DATA     BYTE      IP2
      000000FFH   SFRSYM    DATA     BYTE      RSTCFG
      000000C7H   SFRSYM    DATA     BYTE      IAP_CONTR
      000000F9H   SFRSYM    DATA     BYTE      LINICR
      0000008EH   SFRSYM    DATA     BYTE      AUXR
      000000AFH   SFRSYM    DATA     BYTE      IE2
      00000088H   SFRSYM    DATA     BYTE      TCON
      00000089H   SFRSYM    DATA     BYTE      TMOD
      00000098H   SFRSYM    DATA     BYTE      SCON
      000000F1H   SFRSYM    DATA     BYTE      CANICR
      00000087H   SFRSYM    DATA     BYTE      PCON
      000000BCH   SFRSYM    DATA     BYTE      ADC_CONTR
      000000E7H   SFRSYM    DATA     BYTE      CMPCR2
      000000E6H   SFRSYM    DATA     BYTE      CMPCR1
      000000DEH   SFRSYM    DATA     BYTE      ADCCFG
      000000B8H   SFRSYM    DATA     BYTE      IP
      0000008FH   SFRSYM    DATA     BYTE      INTCLKO
L251 LINKER/LOCATER V4.66.93.0                                                        03/08/2024  18:54:18  PAGE 40


      000000EEH   SFRSYM    DATA     BYTE      IP3H
      000000B6H   SFRSYM    DATA     BYTE      IP2H
      000000A8H   SFRSYM    DATA     BYTE      IE
      000000BBH   SFRSYM    DATA     BYTE      P_SW3
      000000BAH   SFRSYM    DATA     BYTE      P_SW2
      000000A2H   SFRSYM    DATA     BYTE      P_SW1
      000000CEH   SFRSYM    DATA     BYTE      SPCTL
      000000F8H   SFRSYM    DATA     BYTE      P7
      000000E8H   SFRSYM    DATA     BYTE      P6
      000000C8H   SFRSYM    DATA     BYTE      P5
      000000C0H   SFRSYM    DATA     BYTE      P4
      000000B0H   SFRSYM    DATA     BYTE      P3
      000000A0H   SFRSYM    DATA     BYTE      P2
      00000090H   SFRSYM    DATA     BYTE      P1
      00000080H   SFRSYM    DATA     BYTE      P0
      WR4         REGSYM    ---      INT       irqn
      R3          REGSYM    ---      BYTE      priority

      ---         MODULE    ---      ---       pwm
      00FF55EAH   PUBLIC    HCONST   ---       PWM_CCR_ADDR
      00FF560AH   PUBLIC    HCONST   ---       PWM_ARR_ADDR
      00FF5612H   PUBLIC    HCONST   ---       PWM_CCER_ADDR
      00FF5622H   PUBLIC    HCONST   ---       PWM_CCMR_ADDR
      000000D0H   SFRSYM    DATA     BYTE      PSW
      0000009DH   SFRSYM    DATA     BYTE      IRCBAND
      00000097H   SFRSYM    DATA     BYTE      AUXR2
      000000EFH   SFRSYM    DATA     BYTE      AUXINTIF
      000000FDH   SFRSYM    DATA     BYTE      S4CON
      000000ACH   SFRSYM    DATA     BYTE      S3CON
      0000009AH   SFRSYM    DATA     BYTE      S2CON
      000000B7H   SFRSYM    DATA     BYTE      IPH
      000000CDH   SFRSYM    DATA     BYTE      SPSTAT
      000000DDH   SFRSYM    DATA     BYTE      T4T3M
      000000C1H   SFRSYM    DATA     BYTE      WDT_CONTR
      000000DFH   SFRSYM    DATA     BYTE      IP3
      000000F4H   SFRSYM    DATA     BYTE      USBCON
      000000B5H   SFRSYM    DATA     BYTE      IP2
      000000FFH   SFRSYM    DATA     BYTE      RSTCFG
      000000C7H   SFRSYM    DATA     BYTE      IAP_CONTR
      000000F9H   SFRSYM    DATA     BYTE      LINICR
      0000008EH   SFRSYM    DATA     BYTE      AUXR
      000000AFH   SFRSYM    DATA     BYTE      IE2
      00000088H   SFRSYM    DATA     BYTE      TCON
      00000089H   SFRSYM    DATA     BYTE      TMOD
      00000098H   SFRSYM    DATA     BYTE      SCON
      000000F1H   SFRSYM    DATA     BYTE      CANICR
      00000087H   SFRSYM    DATA     BYTE      PCON
      000000BCH   SFRSYM    DATA     BYTE      ADC_CONTR
      000000E7H   SFRSYM    DATA     BYTE      CMPCR2
      000000E6H   SFRSYM    DATA     BYTE      CMPCR1
      000000DEH   SFRSYM    DATA     BYTE      ADCCFG
      000000B8H   SFRSYM    DATA     BYTE      IP
      0000008FH   SFRSYM    DATA     BYTE      INTCLKO
      000000EEH   SFRSYM    DATA     BYTE      IP3H
      000000B6H   SFRSYM    DATA     BYTE      IP2H
      000000A8H   SFRSYM    DATA     BYTE      IE
      000000BBH   SFRSYM    DATA     BYTE      P_SW3
      000000BAH   SFRSYM    DATA     BYTE      P_SW2
      000000A2H   SFRSYM    DATA     BYTE      P_SW1
      000000CEH   SFRSYM    DATA     BYTE      SPCTL
      000000F8H   SFRSYM    DATA     BYTE      P7
      000000E8H   SFRSYM    DATA     BYTE      P6
      000000C8H   SFRSYM    DATA     BYTE      P5
      000000C0H   SFRSYM    DATA     BYTE      P4
      000000B0H   SFRSYM    DATA     BYTE      P3
L251 LINKER/LOCATER V4.66.93.0                                                        03/08/2024  18:54:18  PAGE 41


      000000A0H   SFRSYM    DATA     BYTE      P2
      00000090H   SFRSYM    DATA     BYTE      P1
      00000080H   SFRSYM    DATA     BYTE      P0
      WR6         REGSYM    ---      INT       pwmch
      WR14        REGSYM    ---      INT       pwmch
      DR28        REGSYM    ---      DWORD     period_temp
      WR26        REGSYM    ---      WORD      freq_div
      WR30        REGSYM    ---      INT       pwmch
      DR24        REGSYM    ---      DWORD     duty
      DR20        REGSYM    ---      DWORD     match_temp
      DR16        REGSYM    ---      DWORD     arr
      WR30        REGSYM    ---      INT       pwmch
      DR24        REGSYM    ---      DWORD     freq
      DR20        REGSYM    ---      DWORD     match_temp
      DR24        REGSYM    ---      DWORD     period_temp
      WR28        REGSYM    ---      WORD      freq_div

      ---         MODULE    ---      ---       spi
      00FF549EH   PUBLIC    CODE     ---       spi_mosi
      000000CFH   SFRSYM    DATA     BYTE      SPDAT
      000000D0H   SFRSYM    DATA     BYTE      PSW
      0000009DH   SFRSYM    DATA     BYTE      IRCBAND
      00000097H   SFRSYM    DATA     BYTE      AUXR2
      000000EFH   SFRSYM    DATA     BYTE      AUXINTIF
      000000FDH   SFRSYM    DATA     BYTE      S4CON
      000000ACH   SFRSYM    DATA     BYTE      S3CON
      0000009AH   SFRSYM    DATA     BYTE      S2CON
      000000B7H   SFRSYM    DATA     BYTE      IPH
      000000CDH   SFRSYM    DATA     BYTE      SPSTAT
      000000DDH   SFRSYM    DATA     BYTE      T4T3M
      000000C1H   SFRSYM    DATA     BYTE      WDT_CONTR
      000000DFH   SFRSYM    DATA     BYTE      IP3
      000000F4H   SFRSYM    DATA     BYTE      USBCON
      000000B5H   SFRSYM    DATA     BYTE      IP2
      000000FFH   SFRSYM    DATA     BYTE      RSTCFG
      000000C7H   SFRSYM    DATA     BYTE      IAP_CONTR
      000000F9H   SFRSYM    DATA     BYTE      LINICR
      0000008EH   SFRSYM    DATA     BYTE      AUXR
      000000AFH   SFRSYM    DATA     BYTE      IE2
      00000088H   SFRSYM    DATA     BYTE      TCON
      00000089H   SFRSYM    DATA     BYTE      TMOD
      00000098H   SFRSYM    DATA     BYTE      SCON
      000000F1H   SFRSYM    DATA     BYTE      CANICR
      00000087H   SFRSYM    DATA     BYTE      PCON
      000000BCH   SFRSYM    DATA     BYTE      ADC_CONTR
      000000E7H   SFRSYM    DATA     BYTE      CMPCR2
      000000E6H   SFRSYM    DATA     BYTE      CMPCR1
      000000DEH   SFRSYM    DATA     BYTE      ADCCFG
      000000B8H   SFRSYM    DATA     BYTE      IP
      0000008FH   SFRSYM    DATA     BYTE      INTCLKO
      000000EEH   SFRSYM    DATA     BYTE      IP3H
      000000B6H   SFRSYM    DATA     BYTE      IP2H
      000000A8H   SFRSYM    DATA     BYTE      IE
      000000BBH   SFRSYM    DATA     BYTE      P_SW3
      000000BAH   SFRSYM    DATA     BYTE      P_SW2
      000000A2H   SFRSYM    DATA     BYTE      P_SW1
      000000CEH   SFRSYM    DATA     BYTE      SPCTL
      000000F8H   SFRSYM    DATA     BYTE      P7
      000000E8H   SFRSYM    DATA     BYTE      P6
      000000C8H   SFRSYM    DATA     BYTE      P5
      000000C0H   SFRSYM    DATA     BYTE      P4
      000000B0H   SFRSYM    DATA     BYTE      P3
      000000A0H   SFRSYM    DATA     BYTE      P2
      00000090H   SFRSYM    DATA     BYTE      P1
      00000080H   SFRSYM    DATA     BYTE      P0
L251 LINKER/LOCATER V4.66.93.0                                                        03/08/2024  18:54:18  PAGE 42


      WR4         REGSYM    ---      INT       sck_pin
      WR12        REGSYM    ---      INT       mosi_pin
      WR14        REGSYM    ---      INT       miso_pin

      00FF549EH   BLOCK     CODE     ---       LVL=0
      R11         REGSYM    ---      BYTE      dat
      00FF549EH   LINE      CODE     ---       #110
      00FF549EH   LINE      CODE     ---       #112
      00FF54A1H   LINE      CODE     ---       #113
      00FF54A6H   LINE      CODE     ---       #114
      00FF54A9H   LINE      CODE     ---       #115
      00FF54ABH   LINE      CODE     ---       #116
      ---         BLOCKEND  ---      ---       LVL=0
      WR14        REGSYM    ---      INT       spi_n
      R7          REGSYM    ---      BYTE      mode

      ---         MODULE    ---      ---       tim
      000000D0H   SFRSYM    DATA     BYTE      PSW
      0000009DH   SFRSYM    DATA     BYTE      IRCBAND
      00000097H   SFRSYM    DATA     BYTE      AUXR2
      000000EFH   SFRSYM    DATA     BYTE      AUXINTIF
      000000FDH   SFRSYM    DATA     BYTE      S4CON
      000000ACH   SFRSYM    DATA     BYTE      S3CON
      0000009AH   SFRSYM    DATA     BYTE      S2CON
      000000B7H   SFRSYM    DATA     BYTE      IPH
      000000CDH   SFRSYM    DATA     BYTE      SPSTAT
      000000DDH   SFRSYM    DATA     BYTE      T4T3M
      000000C1H   SFRSYM    DATA     BYTE      WDT_CONTR
      00000088H.6 SFRSYM    DATA     BIT       TR1
      00000088H.4 SFRSYM    DATA     BIT       TR0
      000000D3H   SFRSYM    DATA     BYTE      T4L
      000000D5H   SFRSYM    DATA     BYTE      T3L
      000000D7H   SFRSYM    DATA     BYTE      T2L
      0000008BH   SFRSYM    DATA     BYTE      TL1
      0000008AH   SFRSYM    DATA     BYTE      TL0
      000000D2H   SFRSYM    DATA     BYTE      T4H
      000000D4H   SFRSYM    DATA     BYTE      T3H
      000000D6H   SFRSYM    DATA     BYTE      T2H
      0000008DH   SFRSYM    DATA     BYTE      TH1
      0000008CH   SFRSYM    DATA     BYTE      TH0
      000000DFH   SFRSYM    DATA     BYTE      IP3
      000000F4H   SFRSYM    DATA     BYTE      USBCON
      000000B5H   SFRSYM    DATA     BYTE      IP2
      000000FFH   SFRSYM    DATA     BYTE      RSTCFG
      000000A8H.3 SFRSYM    DATA     BIT       ET1
      000000A8H.1 SFRSYM    DATA     BIT       ET0
      000000C7H   SFRSYM    DATA     BYTE      IAP_CONTR
      000000F9H   SFRSYM    DATA     BYTE      LINICR
      0000008EH   SFRSYM    DATA     BYTE      AUXR
      000000AFH   SFRSYM    DATA     BYTE      IE2
      00000088H   SFRSYM    DATA     BYTE      TCON
      00000089H   SFRSYM    DATA     BYTE      TMOD
      00000098H   SFRSYM    DATA     BYTE      SCON
      000000F1H   SFRSYM    DATA     BYTE      CANICR
      00000087H   SFRSYM    DATA     BYTE      PCON
      000000BCH   SFRSYM    DATA     BYTE      ADC_CONTR
      000000E7H   SFRSYM    DATA     BYTE      CMPCR2
      000000E6H   SFRSYM    DATA     BYTE      CMPCR1
      000000DEH   SFRSYM    DATA     BYTE      ADCCFG
      000000B8H   SFRSYM    DATA     BYTE      IP
      0000008FH   SFRSYM    DATA     BYTE      INTCLKO
      000000EEH   SFRSYM    DATA     BYTE      IP3H
      000000B6H   SFRSYM    DATA     BYTE      IP2H
      000000A8H   SFRSYM    DATA     BYTE      IE
      000000BBH   SFRSYM    DATA     BYTE      P_SW3
L251 LINKER/LOCATER V4.66.93.0                                                        03/08/2024  18:54:18  PAGE 43


      000000BAH   SFRSYM    DATA     BYTE      P_SW2
      000000A2H   SFRSYM    DATA     BYTE      P_SW1
      000000CEH   SFRSYM    DATA     BYTE      SPCTL
      000000F8H   SFRSYM    DATA     BYTE      P7
      000000E8H   SFRSYM    DATA     BYTE      P6
      000000C8H   SFRSYM    DATA     BYTE      P5
      000000C0H   SFRSYM    DATA     BYTE      P4
      000000B0H   SFRSYM    DATA     BYTE      P3
      000000A0H   SFRSYM    DATA     BYTE      P2
      00000090H   SFRSYM    DATA     BYTE      P1
      00000080H   SFRSYM    DATA     BYTE      P0
      WR6         REGSYM    ---      INT       tim_n
      WR4         REGSYM    ---      INT       tim_n
      WR6         REGSYM    ---      WORD      dat
      WR6         REGSYM    ---      INT       tim_n
      WR30        REGSYM    ---      INT       tim_n
      WR28        REGSYM    ---      WORD      time_ms
      WR28        REGSYM    ---      WORD      temp

      ---         MODULE    ---      ---       uart
      00FF4B27H   PUBLIC    CODE     ---       uart_putchar
      00FF4681H   PUBLIC    CODE     ---       uart_init
      00000440H   PUBLIC    EDATA    ---       busy
      000003F8H   PUBLIC    EDATA    BYTE      ?uart_init?BYTE
      000000D0H   SFRSYM    DATA     BYTE      PSW
      0000009DH   SFRSYM    DATA     BYTE      IRCBAND
      00000097H   SFRSYM    DATA     BYTE      AUXR2
      000000EFH   SFRSYM    DATA     BYTE      AUXINTIF
      000000FDH   SFRSYM    DATA     BYTE      S4CON
      000000ACH   SFRSYM    DATA     BYTE      S3CON
      0000009AH   SFRSYM    DATA     BYTE      S2CON
      000000FEH   SFRSYM    DATA     BYTE      S4BUF
      000000ADH   SFRSYM    DATA     BYTE      S3BUF
      0000009BH   SFRSYM    DATA     BYTE      S2BUF
      000000B7H   SFRSYM    DATA     BYTE      IPH
      000000CDH   SFRSYM    DATA     BYTE      SPSTAT
      000000DDH   SFRSYM    DATA     BYTE      T4T3M
      000000C1H   SFRSYM    DATA     BYTE      WDT_CONTR
      00000088H.6 SFRSYM    DATA     BIT       TR1
      000000D3H   SFRSYM    DATA     BYTE      T4L
      000000D5H   SFRSYM    DATA     BYTE      T3L
      000000D7H   SFRSYM    DATA     BYTE      T2L
      0000008BH   SFRSYM    DATA     BYTE      TL1
      000000D2H   SFRSYM    DATA     BYTE      T4H
      000000D4H   SFRSYM    DATA     BYTE      T3H
      000000D6H   SFRSYM    DATA     BYTE      T2H
      0000008DH   SFRSYM    DATA     BYTE      TH1
      000000DFH   SFRSYM    DATA     BYTE      IP3
      000000F4H   SFRSYM    DATA     BYTE      USBCON
      000000B5H   SFRSYM    DATA     BYTE      IP2
      000000FFH   SFRSYM    DATA     BYTE      RSTCFG
      000000C7H   SFRSYM    DATA     BYTE      IAP_CONTR
      000000F9H   SFRSYM    DATA     BYTE      LINICR
      0000008EH   SFRSYM    DATA     BYTE      AUXR
      000000AFH   SFRSYM    DATA     BYTE      IE2
      00000088H   SFRSYM    DATA     BYTE      TCON
      00000089H   SFRSYM    DATA     BYTE      TMOD
      00000098H   SFRSYM    DATA     BYTE      SCON
      000000F1H   SFRSYM    DATA     BYTE      CANICR
      00000087H   SFRSYM    DATA     BYTE      PCON
      00000099H   SFRSYM    DATA     BYTE      SBUF
      000000BCH   SFRSYM    DATA     BYTE      ADC_CONTR
      000000E7H   SFRSYM    DATA     BYTE      CMPCR2
      000000E6H   SFRSYM    DATA     BYTE      CMPCR1
      000000DEH   SFRSYM    DATA     BYTE      ADCCFG
L251 LINKER/LOCATER V4.66.93.0                                                        03/08/2024  18:54:18  PAGE 44


      000000B8H   SFRSYM    DATA     BYTE      IP
      000000A8H.4 SFRSYM    DATA     BIT       ES
      0000008FH   SFRSYM    DATA     BYTE      INTCLKO
      000000EEH   SFRSYM    DATA     BYTE      IP3H
      000000B6H   SFRSYM    DATA     BYTE      IP2H
      000000A8H   SFRSYM    DATA     BYTE      IE
      000000BBH   SFRSYM    DATA     BYTE      P_SW3
      000000BAH   SFRSYM    DATA     BYTE      P_SW2
      000000A2H   SFRSYM    DATA     BYTE      P_SW1
      000000CEH   SFRSYM    DATA     BYTE      SPCTL
      000000F8H   SFRSYM    DATA     BYTE      P7
      000000E8H   SFRSYM    DATA     BYTE      P6
      000000C8H   SFRSYM    DATA     BYTE      P5
      000000C0H   SFRSYM    DATA     BYTE      P4
      000000C9H   SFRSYM    DATA     BYTE      P5M1
      000000B0H   SFRSYM    DATA     BYTE      P3
      000000CAH   SFRSYM    DATA     BYTE      P5M0
      000000A0H   SFRSYM    DATA     BYTE      P2
      00000090H   SFRSYM    DATA     BYTE      P1
      00000080H   SFRSYM    DATA     BYTE      P0

      00FF4681H   BLOCK     CODE     ---       LVL=0
      WR24        REGSYM    ---      INT       uart_n
      WR28        REGSYM    ---      INT       uart_rx_pin
      WR30        REGSYM    ---      INT       uart_tx_pin
      000003FEH   SYMBOL    EDATA    DWORD     baud
      WR26        REGSYM    ---      INT       tim_n
      00FF4689H   BLOCK     CODE     NEAR LAB  LVL=1
      WR6         REGSYM    ---      WORD      brt
      ---         BLOCKEND  ---      ---       LVL=1
      00FF4681H   LINE      CODE     ---       #32
      00FF4689H   LINE      CODE     ---       #33
      00FF4689H   LINE      CODE     ---       #36
      00FF46ACH   LINE      CODE     ---       #39
      00FF46CAH   LINE      CODE     ---       #41
      00FF46CAH   LINE      CODE     ---       #43
      00FF46D0H   LINE      CODE     ---       #45
      00FF46D3H   LINE      CODE     ---       #46
      00FF46D7H   LINE      CODE     ---       #47
      00FF46DBH   LINE      CODE     ---       #48
      00FF46DFH   LINE      CODE     ---       #49
      00FF46E2H   LINE      CODE     ---       #50
      00FF46E4H   LINE      CODE     ---       #51
      00FF46E9H   LINE      CODE     ---       #52
      00FF46EBH   LINE      CODE     ---       #53
      00FF46F1H   LINE      CODE     ---       #55
      00FF46F4H   LINE      CODE     ---       #56
      00FF46F8H   LINE      CODE     ---       #57
      00FF46FCH   LINE      CODE     ---       #58
      00FF46FFH   LINE      CODE     ---       #59
      00FF46FFH   LINE      CODE     ---       #60
      00FF4702H   LINE      CODE     ---       #61
      00FF470CH   LINE      CODE     ---       #63
      00FF4710H   LINE      CODE     ---       #64
      00FF4712H   LINE      CODE     ---       #65
      00FF471EH   LINE      CODE     ---       #67
      00FF4721H   LINE      CODE     ---       #68
      00FF4723H   LINE      CODE     ---       #69
      00FF472FH   LINE      CODE     ---       #71
      00FF4732H   LINE      CODE     ---       #72
      00FF4734H   LINE      CODE     ---       #73
      00FF4740H   LINE      CODE     ---       #75
      00FF4743H   LINE      CODE     ---       #76
      00FF4743H   LINE      CODE     ---       #77
      00FF4748H   LINE      CODE     ---       #78
L251 LINKER/LOCATER V4.66.93.0                                                        03/08/2024  18:54:18  PAGE 45


      00FF474AH   LINE      CODE     ---       #79
      00FF474BH   LINE      CODE     ---       #82
      00FF474BH   LINE      CODE     ---       #84
      00FF4751H   LINE      CODE     ---       #86
      00FF4754H   LINE      CODE     ---       #87
      00FF4758H   LINE      CODE     ---       #88
      00FF475CH   LINE      CODE     ---       #89
      00FF475FH   LINE      CODE     ---       #90
      00FF475FH   LINE      CODE     ---       #92
      00FF4762H   LINE      CODE     ---       #93
      00FF476EH   LINE      CODE     ---       #95
      00FF4772H   LINE      CODE     ---       #96
      00FF4774H   LINE      CODE     ---       #97
      00FF4780H   LINE      CODE     ---       #99
      00FF4783H   LINE      CODE     ---       #100
      00FF4783H   LINE      CODE     ---       #102
      00FF4786H   LINE      CODE     ---       #103
      00FF478BH   LINE      CODE     ---       #104
      00FF478CH   LINE      CODE     ---       #107
      00FF478CH   LINE      CODE     ---       #109
      00FF4792H   LINE      CODE     ---       #111
      00FF4795H   LINE      CODE     ---       #112
      00FF4799H   LINE      CODE     ---       #113
      00FF479DH   LINE      CODE     ---       #114
      00FF47A0H   LINE      CODE     ---       #115
      00FF47A2H   LINE      CODE     ---       #116
      00FF47A8H   LINE      CODE     ---       #118
      00FF47ABH   LINE      CODE     ---       #119
      00FF47AFH   LINE      CODE     ---       #120
      00FF47B3H   LINE      CODE     ---       #121
      00FF47B6H   LINE      CODE     ---       #122
      00FF47B6H   LINE      CODE     ---       #124
      00FF47B9H   LINE      CODE     ---       #125
      00FF47C5H   LINE      CODE     ---       #127
      00FF47C9H   LINE      CODE     ---       #128
      00FF47CBH   LINE      CODE     ---       #129
      00FF47D7H   LINE      CODE     ---       #131
      00FF47DAH   LINE      CODE     ---       #132
      00FF47DAH   LINE      CODE     ---       #134
      00FF47DDH   LINE      CODE     ---       #135
      00FF47E2H   LINE      CODE     ---       #136
      00FF47E3H   LINE      CODE     ---       #139
      00FF47E3H   LINE      CODE     ---       #141
      00FF47E9H   LINE      CODE     ---       #143
      00FF47ECH   LINE      CODE     ---       #144
      00FF47F0H   LINE      CODE     ---       #145
      00FF47F4H   LINE      CODE     ---       #146
      00FF47F7H   LINE      CODE     ---       #147
      00FF47F9H   LINE      CODE     ---       #148
      00FF47FFH   LINE      CODE     ---       #150
      00FF4802H   LINE      CODE     ---       #151
      00FF4806H   LINE      CODE     ---       #152
      00FF480AH   LINE      CODE     ---       #153
      00FF480DH   LINE      CODE     ---       #154
      00FF480DH   LINE      CODE     ---       #156
      00FF4810H   LINE      CODE     ---       #157
      00FF481CH   LINE      CODE     ---       #159
      00FF4820H   LINE      CODE     ---       #160
      00FF4822H   LINE      CODE     ---       #161
      00FF482EH   LINE      CODE     ---       #163
      00FF4831H   LINE      CODE     ---       #164
      00FF4834H   LINE      CODE     ---       #165
      00FF4837H   LINE      CODE     ---       #166
      00FF4837H   LINE      CODE     ---       #167
      00FF483AH   LINE      CODE     ---       #168
L251 LINKER/LOCATER V4.66.93.0                                                        03/08/2024  18:54:18  PAGE 46


      00FF483FH   LINE      CODE     ---       #169
      00FF483FH   LINE      CODE     ---       #172
      00FF483FH   LINE      CODE     ---       #174
      ---         BLOCKEND  ---      ---       LVL=0

      00FF4B27H   BLOCK     CODE     ---       LVL=0
      WR6         REGSYM    ---      INT       uart_n
      R10         REGSYM    ---      BYTE      dat
      00FF4B27H   LINE      CODE     ---       #183
      00FF4B29H   LINE      CODE     ---       #185
      00FF4B3BH   LINE      CODE     ---       #187
      00FF4B3BH   LINE      CODE     ---       #188
      00FF4B41H   LINE      CODE     ---       #189
      00FF4B47H   LINE      CODE     ---       #190
      00FF4B4AH   LINE      CODE     ---       #191
      00FF4B4BH   LINE      CODE     ---       #192
      00FF4B4BH   LINE      CODE     ---       #193
      00FF4B51H   LINE      CODE     ---       #194
      00FF4B57H   LINE      CODE     ---       #195
      00FF4B5AH   LINE      CODE     ---       #196
      00FF4B5BH   LINE      CODE     ---       #197
      00FF4B5BH   LINE      CODE     ---       #198
      00FF4B61H   LINE      CODE     ---       #199
      00FF4B67H   LINE      CODE     ---       #200
      00FF4B6AH   LINE      CODE     ---       #201
      00FF4B6BH   LINE      CODE     ---       #202
      00FF4B6BH   LINE      CODE     ---       #203
      00FF4B71H   LINE      CODE     ---       #204
      00FF4B77H   LINE      CODE     ---       #205
      00FF4B7AH   LINE      CODE     ---       #206
      00FF4B7AH   LINE      CODE     ---       #207
      00FF4B7AH   LINE      CODE     ---       #208
      ---         BLOCKEND  ---      ---       LVL=0
      REG=3       REGSYM    ---      ---       p
      REG=3       REGSYM    ---      ---       str

      ---         MODULE    ---      ---       isr
      00FF4E06H   PUBLIC    CODE     ---       UART1_Isr
      00FF52E9H   PUBLIC    CODE     ---       UART2_Isr
      00FF5307H   PUBLIC    CODE     ---       UART3_Isr
      00FF4A71H   PUBLIC    CODE     ---       UART4_Isr
      00FF554EH   PUBLIC    CODE     ---       INT0_Isr
      00FF0011H   PUBLIC    CODE     ---       INT1_Isr
      00FF5516H   PUBLIC    CODE     ---       INT2_Isr
      00FF551EH   PUBLIC    CODE     ---       INT3_Isr
      00FF5526H   PUBLIC    CODE     ---       INT4_Isr
      00FF0012H   PUBLIC    CODE     ---       TM0_Isr
      00FF0019H   PUBLIC    CODE     ---       TM1_Isr
      00FF552EH   PUBLIC    CODE     ---       TM2_Isr
      00FF5536H   PUBLIC    CODE     ---       TM3_Isr
      00FF553EH   PUBLIC    CODE     ---       TM4_Isr
      000000D0H   SFRSYM    DATA     BYTE      PSW
      0000009DH   SFRSYM    DATA     BYTE      IRCBAND
      00000097H   SFRSYM    DATA     BYTE      AUXR2
      000000EFH   SFRSYM    DATA     BYTE      AUXINTIF
      000000FDH   SFRSYM    DATA     BYTE      S4CON
      000000ACH   SFRSYM    DATA     BYTE      S3CON
      0000009AH   SFRSYM    DATA     BYTE      S2CON
      000000B7H   SFRSYM    DATA     BYTE      IPH
      000000CDH   SFRSYM    DATA     BYTE      SPSTAT
      000000DDH   SFRSYM    DATA     BYTE      T4T3M
      000000C1H   SFRSYM    DATA     BYTE      WDT_CONTR
      000000DFH   SFRSYM    DATA     BYTE      IP3
      000000F4H   SFRSYM    DATA     BYTE      USBCON
      000000B5H   SFRSYM    DATA     BYTE      IP2
L251 LINKER/LOCATER V4.66.93.0                                                        03/08/2024  18:54:18  PAGE 47


      000000FFH   SFRSYM    DATA     BYTE      RSTCFG
      000000C7H   SFRSYM    DATA     BYTE      IAP_CONTR
      000000F9H   SFRSYM    DATA     BYTE      LINICR
      0000008EH   SFRSYM    DATA     BYTE      AUXR
      000000AFH   SFRSYM    DATA     BYTE      IE2
      000000C8H.2 SFRSYM    DATA     BIT       P52
      00000088H   SFRSYM    DATA     BYTE      TCON
      00000089H   SFRSYM    DATA     BYTE      TMOD
      00000098H   SFRSYM    DATA     BYTE      SCON
      000000F1H   SFRSYM    DATA     BYTE      CANICR
      00000087H   SFRSYM    DATA     BYTE      PCON
      00000099H   SFRSYM    DATA     BYTE      SBUF
      000000BCH   SFRSYM    DATA     BYTE      ADC_CONTR
      000000E7H   SFRSYM    DATA     BYTE      CMPCR2
      000000E6H   SFRSYM    DATA     BYTE      CMPCR1
      000000DEH   SFRSYM    DATA     BYTE      ADCCFG
      000000B8H   SFRSYM    DATA     BYTE      IP
      0000008FH   SFRSYM    DATA     BYTE      INTCLKO
      000000EEH   SFRSYM    DATA     BYTE      IP3H
      000000B6H   SFRSYM    DATA     BYTE      IP2H
      000000A8H   SFRSYM    DATA     BYTE      IE
      000000BBH   SFRSYM    DATA     BYTE      P_SW3
      000000BAH   SFRSYM    DATA     BYTE      P_SW2
      000000A2H   SFRSYM    DATA     BYTE      P_SW1
      000000CEH   SFRSYM    DATA     BYTE      SPCTL
      000000F8H   SFRSYM    DATA     BYTE      P7
      000000E8H   SFRSYM    DATA     BYTE      P6
      000000C8H   SFRSYM    DATA     BYTE      P5
      000000C0H   SFRSYM    DATA     BYTE      P4
      000000B0H   SFRSYM    DATA     BYTE      P3
      000000A0H   SFRSYM    DATA     BYTE      P2
      00000090H   SFRSYM    DATA     BYTE      P1
      00000080H   SFRSYM    DATA     BYTE      P0

      00FF4E06H   BLOCK     CODE     ---       LVL=0
      00FF4E0AH   BLOCK     CODE     NEAR LAB  LVL=1
      R11         REGSYM    ---      BYTE      res
      00000471H   SYMBOL    EDATA    BYTE      dwon_count
      ---         BLOCKEND  ---      ---       LVL=1
      00FF4E06H   LINE      CODE     ---       #12
      00FF4E0AH   LINE      CODE     ---       #13
      00FF4E0AH   LINE      CODE     ---       #16
      00FF4E0FH   LINE      CODE     ---       #18
      00FF4E12H   LINE      CODE     ---       #19
      00FF4E17H   LINE      CODE     ---       #20
      00FF4E17H   LINE      CODE     ---       #21
      00FF4E1CH   LINE      CODE     ---       #23
      00FF4E1FH   LINE      CODE     ---       #24
      00FF4E21H   LINE      CODE     ---       #26
      00FF4E24H   LINE      CODE     ---       #28
      00FF4E34H   LINE      CODE     ---       #29
      00FF4E37H   LINE      CODE     ---       #30
      00FF4E39H   LINE      CODE     ---       #33
      00FF4E3EH   LINE      CODE     ---       #34
      00FF4E3EH   LINE      CODE     ---       #35
      ---         BLOCKEND  ---      ---       LVL=0

      00FF52E9H   BLOCK     CODE     ---       LVL=0
      00FF52E9H   LINE      CODE     ---       #39
      00FF52EDH   LINE      CODE     ---       #41
      00FF52F2H   LINE      CODE     ---       #43
      00FF52F5H   LINE      CODE     ---       #44
      00FF52FAH   LINE      CODE     ---       #45
      00FF52FAH   LINE      CODE     ---       #46
      00FF52FFH   LINE      CODE     ---       #48
L251 LINKER/LOCATER V4.66.93.0                                                        03/08/2024  18:54:18  PAGE 48


      00FF5302H   LINE      CODE     ---       #51
      ---         BLOCKEND  ---      ---       LVL=0

      00FF5307H   BLOCK     CODE     ---       LVL=0
      00FF5307H   LINE      CODE     ---       #56
      00FF530BH   LINE      CODE     ---       #58
      00FF5310H   LINE      CODE     ---       #60
      00FF5313H   LINE      CODE     ---       #61
      00FF5318H   LINE      CODE     ---       #62
      00FF5318H   LINE      CODE     ---       #63
      00FF531DH   LINE      CODE     ---       #65
      00FF5320H   LINE      CODE     ---       #68
      ---         BLOCKEND  ---      ---       LVL=0

      00FF4A71H   BLOCK     CODE     ---       LVL=0
      00FF4A71H   LINE      CODE     ---       #73
      00FF4A89H   LINE      CODE     ---       #75
      00FF4A8EH   LINE      CODE     ---       #77
      00FF4A91H   LINE      CODE     ---       #78
      00FF4A96H   LINE      CODE     ---       #79
      00FF4A96H   LINE      CODE     ---       #80
      00FF4A9BH   LINE      CODE     ---       #82
      00FF4A9EH   LINE      CODE     ---       #85
      00FF4AA8H   LINE      CODE     ---       #87
      00FF4AABH   LINE      CODE     ---       #88
      00FF4AADH   LINE      CODE     ---       #89
      00FF4AB3H   LINE      CODE     ---       #91
      00FF4AB6H   LINE      CODE     ---       #92
      00FF4AB6H   LINE      CODE     ---       #95
      ---         BLOCKEND  ---      ---       LVL=0

      00FF554EH   BLOCK     CODE     ---       LVL=0
      00FF554EH   LINE      CODE     ---       #98
      00FF5550H   LINE      CODE     ---       #100
      00FF5552H   LINE      CODE     ---       #101
      ---         BLOCKEND  ---      ---       LVL=0

      00FF0011H   BLOCK     CODE     ---       LVL=0
      00FF0011H   LINE      CODE     ---       #102
      00FF0011H   LINE      CODE     ---       #105
      ---         BLOCKEND  ---      ---       LVL=0

      00FF5516H   BLOCK     CODE     ---       LVL=0
      00FF5516H   LINE      CODE     ---       #106
      00FF5518H   LINE      CODE     ---       #108
      00FF551BH   LINE      CODE     ---       #109
      ---         BLOCKEND  ---      ---       LVL=0

      00FF551EH   BLOCK     CODE     ---       LVL=0
      00FF551EH   LINE      CODE     ---       #110
      00FF5520H   LINE      CODE     ---       #112
      00FF5523H   LINE      CODE     ---       #113
      ---         BLOCKEND  ---      ---       LVL=0

      00FF5526H   BLOCK     CODE     ---       LVL=0
      00FF5526H   LINE      CODE     ---       #115
      00FF5528H   LINE      CODE     ---       #117
      00FF552BH   LINE      CODE     ---       #118
      ---         BLOCKEND  ---      ---       LVL=0

      00FF0012H   BLOCK     CODE     ---       LVL=0
      00FF0012H   LINE      CODE     ---       #120
      00FF0012H   LINE      CODE     ---       #123
      ---         BLOCKEND  ---      ---       LVL=0

L251 LINKER/LOCATER V4.66.93.0                                                        03/08/2024  18:54:18  PAGE 49


      00FF0019H   BLOCK     CODE     ---       LVL=0
      00FF0019H   LINE      CODE     ---       #124
      00FF0019H   LINE      CODE     ---       #127
      ---         BLOCKEND  ---      ---       LVL=0

      00FF552EH   BLOCK     CODE     ---       LVL=0
      00FF552EH   LINE      CODE     ---       #128
      00FF5530H   LINE      CODE     ---       #130
      00FF5533H   LINE      CODE     ---       #132
      ---         BLOCKEND  ---      ---       LVL=0

      00FF5536H   BLOCK     CODE     ---       LVL=0
      00FF5536H   LINE      CODE     ---       #133
      00FF5538H   LINE      CODE     ---       #135
      00FF553BH   LINE      CODE     ---       #137
      ---         BLOCKEND  ---      ---       LVL=0

      00FF553EH   BLOCK     CODE     ---       LVL=0
      00FF553EH   LINE      CODE     ---       #139
      00FF5540H   LINE      CODE     ---       #141
      00FF5543H   LINE      CODE     ---       #144
      ---         BLOCKEND  ---      ---       LVL=0

      ---         MODULE    ---      ---       main
      00FF5042H   PUBLIC    CODE     ---       main
      000000D0H   SFRSYM    DATA     BYTE      PSW
      0000009DH   SFRSYM    DATA     BYTE      IRCBAND
      00000097H   SFRSYM    DATA     BYTE      AUXR2
      000000EFH   SFRSYM    DATA     BYTE      AUXINTIF
      000000FDH   SFRSYM    DATA     BYTE      S4CON
      000000ACH   SFRSYM    DATA     BYTE      S3CON
      0000009AH   SFRSYM    DATA     BYTE      S2CON
      000000B7H   SFRSYM    DATA     BYTE      IPH
      000000CDH   SFRSYM    DATA     BYTE      SPSTAT
      000000DDH   SFRSYM    DATA     BYTE      T4T3M
      000000C1H   SFRSYM    DATA     BYTE      WDT_CONTR
      000000DFH   SFRSYM    DATA     BYTE      IP3
      000000F4H   SFRSYM    DATA     BYTE      USBCON
      000000B5H   SFRSYM    DATA     BYTE      IP2
      000000FFH   SFRSYM    DATA     BYTE      RSTCFG
      000000C7H   SFRSYM    DATA     BYTE      IAP_CONTR
      000000F9H   SFRSYM    DATA     BYTE      LINICR
      0000008EH   SFRSYM    DATA     BYTE      AUXR
      000000AFH   SFRSYM    DATA     BYTE      IE2
      00000088H   SFRSYM    DATA     BYTE      TCON
      00000089H   SFRSYM    DATA     BYTE      TMOD
      000000C8H.0 SFRSYM    DATA     BIT       P50
      00000098H   SFRSYM    DATA     BYTE      SCON
      000000F1H   SFRSYM    DATA     BYTE      CANICR
      00000087H   SFRSYM    DATA     BYTE      PCON
      000000BCH   SFRSYM    DATA     BYTE      ADC_CONTR
      000000E7H   SFRSYM    DATA     BYTE      CMPCR2
      000000E6H   SFRSYM    DATA     BYTE      CMPCR1
      000000DEH   SFRSYM    DATA     BYTE      ADCCFG
      000000B8H   SFRSYM    DATA     BYTE      IP
      0000008FH   SFRSYM    DATA     BYTE      INTCLKO
      000000EEH   SFRSYM    DATA     BYTE      IP3H
      000000B6H   SFRSYM    DATA     BYTE      IP2H
      000000A8H   SFRSYM    DATA     BYTE      IE
      000000BBH   SFRSYM    DATA     BYTE      P_SW3
      000000BAH   SFRSYM    DATA     BYTE      P_SW2
      000000A2H   SFRSYM    DATA     BYTE      P_SW1
      000000CEH   SFRSYM    DATA     BYTE      SPCTL
      000000F8H   SFRSYM    DATA     BYTE      P7
      000000E8H   SFRSYM    DATA     BYTE      P6
L251 LINKER/LOCATER V4.66.93.0                                                        03/08/2024  18:54:18  PAGE 50


      000000C8H   SFRSYM    DATA     BYTE      P5
      000000C0H   SFRSYM    DATA     BYTE      P4
      000000B0H   SFRSYM    DATA     BYTE      P3
      000000A0H   SFRSYM    DATA     BYTE      P2
      00000090H   SFRSYM    DATA     BYTE      P1
      00000080H   SFRSYM    DATA     BYTE      P0

      00FF5042H   BLOCK     CODE     ---       LVL=0
      00FF5042H   LINE      CODE     ---       #23
      00FF5042H   LINE      CODE     ---       #25
      00FF504DH   LINE      CODE     ---       #26
      00FF5050H   LINE      CODE     ---       #31
      00FF505BH   LINE      CODE     ---       #33
      00FF505BH   LINE      CODE     ---       #35
      00FF5064H   LINE      CODE     ---       #36
      00FF506BH   LINE      CODE     ---       #37
      ---         BLOCKEND  ---      ---       LVL=0

      ---         MODULE    ---      ---       18TFT
      00FF506DH   PUBLIC    CODE     ---       lcd_writeIndex_simspi
      00FF5096H   PUBLIC    CODE     ---       lcd_writeData_simspi
      00FF54DAH   PUBLIC    CODE     ---       lcd_writeIndex
      00FF54E4H   PUBLIC    CODE     ---       lcd_writeData
      00FF4FEAH   PUBLIC    CODE     ---       lcd_writeData_16bit_simspi
      00FF4C6EH   PUBLIC    CODE     ---       lcd_set_region_simspi
      00FF4CBAH   PUBLIC    CODE     ---       lcd_set_region
      00FF52ABH   PUBLIC    CODE     ---       lcd_writedata_16bit
      000000D0H   SFRSYM    DATA     BYTE      PSW
      0000009DH   SFRSYM    DATA     BYTE      IRCBAND
      00000097H   SFRSYM    DATA     BYTE      AUXR2
      000000EFH   SFRSYM    DATA     BYTE      AUXINTIF
      000000FDH   SFRSYM    DATA     BYTE      S4CON
      000000ACH   SFRSYM    DATA     BYTE      S3CON
      0000009AH   SFRSYM    DATA     BYTE      S2CON
      000000B7H   SFRSYM    DATA     BYTE      IPH
      000000CDH   SFRSYM    DATA     BYTE      SPSTAT
      000000DDH   SFRSYM    DATA     BYTE      T4T3M
      000000C1H   SFRSYM    DATA     BYTE      WDT_CONTR
      000000DFH   SFRSYM    DATA     BYTE      IP3
      000000F4H   SFRSYM    DATA     BYTE      USBCON
      000000B5H   SFRSYM    DATA     BYTE      IP2
      000000FFH   SFRSYM    DATA     BYTE      RSTCFG
      000000C7H   SFRSYM    DATA     BYTE      IAP_CONTR
      000000F9H   SFRSYM    DATA     BYTE      LINICR
      0000008EH   SFRSYM    DATA     BYTE      AUXR
      000000AFH   SFRSYM    DATA     BYTE      IE2
      000000A0H.5 SFRSYM    DATA     BIT       P25
      00000088H   SFRSYM    DATA     BYTE      TCON
      00000089H   SFRSYM    DATA     BYTE      TMOD
      000000A0H.3 SFRSYM    DATA     BIT       P23
      00000098H   SFRSYM    DATA     BYTE      SCON
      000000A0H.2 SFRSYM    DATA     BIT       P22
      000000A0H.1 SFRSYM    DATA     BIT       P21
      000000A0H.0 SFRSYM    DATA     BIT       P20
      000000F1H   SFRSYM    DATA     BYTE      CANICR
      00000087H   SFRSYM    DATA     BYTE      PCON
      000000BCH   SFRSYM    DATA     BYTE      ADC_CONTR
      000000E7H   SFRSYM    DATA     BYTE      CMPCR2
      000000E6H   SFRSYM    DATA     BYTE      CMPCR1
      000000DEH   SFRSYM    DATA     BYTE      ADCCFG
      000000B8H   SFRSYM    DATA     BYTE      IP
      0000008FH   SFRSYM    DATA     BYTE      INTCLKO
      000000EEH   SFRSYM    DATA     BYTE      IP3H
      000000B6H   SFRSYM    DATA     BYTE      IP2H
      000000A8H   SFRSYM    DATA     BYTE      IE
L251 LINKER/LOCATER V4.66.93.0                                                        03/08/2024  18:54:18  PAGE 51


      000000BBH   SFRSYM    DATA     BYTE      P_SW3
      000000BAH   SFRSYM    DATA     BYTE      P_SW2
      000000A2H   SFRSYM    DATA     BYTE      P_SW1
      000000CEH   SFRSYM    DATA     BYTE      SPCTL
      000000F8H   SFRSYM    DATA     BYTE      P7
      000000E8H   SFRSYM    DATA     BYTE      P6
      000000C8H   SFRSYM    DATA     BYTE      P5
      000000C0H   SFRSYM    DATA     BYTE      P4
      000000B0H   SFRSYM    DATA     BYTE      P3
      000000A0H   SFRSYM    DATA     BYTE      P2
      00000090H   SFRSYM    DATA     BYTE      P1
      00000080H   SFRSYM    DATA     BYTE      P0

      00FF506DH   BLOCK     CODE     ---       LVL=0
      R7          REGSYM    ---      BYTE      dat
      00FF506FH   BLOCK     CODE     NEAR LAB  LVL=1
      R6          REGSYM    ---      BYTE      i
      ---         BLOCKEND  ---      ---       LVL=1
      00FF506DH   LINE      CODE     ---       #42
      00FF506FH   LINE      CODE     ---       #43
      00FF506FH   LINE      CODE     ---       #44
      00FF5072H   LINE      CODE     ---       #46
      00FF5074H   LINE      CODE     ---       #47
      00FF5076H   LINE      CODE     ---       #48
      00FF5078H   LINE      CODE     ---       #50
      00FF507AH   LINE      CODE     ---       #52
      00FF5083H   LINE      CODE     ---       #53
      00FF5085H   LINE      CODE     ---       #54
      00FF5087H   LINE      CODE     ---       #56
      00FF5089H   LINE      CODE     ---       #57
      00FF508BH   LINE      CODE     ---       #58
      00FF5093H   LINE      CODE     ---       #59
      00FF5095H   LINE      CODE     ---       #60
      ---         BLOCKEND  ---      ---       LVL=0

      00FF5096H   BLOCK     CODE     ---       LVL=0
      R7          REGSYM    ---      BYTE      dat
      00FF5098H   BLOCK     CODE     NEAR LAB  LVL=1
      R6          REGSYM    ---      BYTE      i
      ---         BLOCKEND  ---      ---       LVL=1
      00FF5096H   LINE      CODE     ---       #69
      00FF5098H   LINE      CODE     ---       #70
      00FF5098H   LINE      CODE     ---       #71
      00FF509BH   LINE      CODE     ---       #73
      00FF509DH   LINE      CODE     ---       #74
      00FF509FH   LINE      CODE     ---       #75
      00FF50A1H   LINE      CODE     ---       #76
      00FF50A3H   LINE      CODE     ---       #78
      00FF50ACH   LINE      CODE     ---       #79
      00FF50AEH   LINE      CODE     ---       #80
      00FF50B0H   LINE      CODE     ---       #82
      00FF50B2H   LINE      CODE     ---       #83
      00FF50B4H   LINE      CODE     ---       #84
      00FF50BCH   LINE      CODE     ---       #85
      00FF50BEH   LINE      CODE     ---       #86
      ---         BLOCKEND  ---      ---       LVL=0

      00FF4FEAH   BLOCK     CODE     ---       LVL=0
      WR4         REGSYM    ---      WORD      dat
      00FF4FECH   BLOCK     CODE     NEAR LAB  LVL=1
      R10         REGSYM    ---      BYTE      i
      ---         BLOCKEND  ---      ---       LVL=1
      00FF4FEAH   LINE      CODE     ---       #94
      00FF4FECH   LINE      CODE     ---       #95
      00FF4FECH   LINE      CODE     ---       #96
L251 LINKER/LOCATER V4.66.93.0                                                        03/08/2024  18:54:18  PAGE 52


      00FF4FEFH   LINE      CODE     ---       #98
      00FF4FF1H   LINE      CODE     ---       #99
      00FF4FF3H   LINE      CODE     ---       #100
      00FF4FF5H   LINE      CODE     ---       #102
      00FF4FF7H   LINE      CODE     ---       #104
      00FF5003H   LINE      CODE     ---       #105
      00FF5005H   LINE      CODE     ---       #106
      00FF5007H   LINE      CODE     ---       #108
      00FF5009H   LINE      CODE     ---       #109
      00FF500BH   LINE      CODE     ---       #110
      00FF5013H   LINE      CODE     ---       #112
      00FF5015H   LINE      CODE     ---       #114
      ---         BLOCKEND  ---      ---       LVL=0

      00FF4C6EH   BLOCK     CODE     ---       LVL=0
      00000452H   SYMBOL    EDATA    WORD      x_start
      00000454H   SYMBOL    EDATA    WORD      y_start
      WR12        REGSYM    ---      WORD      x_end
      WR14        REGSYM    ---      WORD      y_end
      00FF4C6EH   LINE      CODE     ---       #125
      00FF4C78H   LINE      CODE     ---       #129
      00FF4C7DH   LINE      CODE     ---       #130
      00FF4C81H   LINE      CODE     ---       #131
      00FF4C8AH   LINE      CODE     ---       #132
      00FF4C8EH   LINE      CODE     ---       #133
      00FF4C95H   LINE      CODE     ---       #135
      00FF4C9AH   LINE      CODE     ---       #136
      00FF4C9EH   LINE      CODE     ---       #137
      00FF4CA7H   LINE      CODE     ---       #138
      00FF4CABH   LINE      CODE     ---       #139
      00FF4CB2H   LINE      CODE     ---       #156
      00FF4CB7H   LINE      CODE     ---       #157
      ---         BLOCKEND  ---      ---       LVL=0
      WR14        REGSYM    ---      INT       color
      R13         REGSYM    ---      BYTE      i
      R12         REGSYM    ---      BYTE      j
      WR2         REGSYM    ---      WORD      x
      WR0         REGSYM    ---      WORD      y
      WR14        REGSYM    ---      WORD      color
      WR12        REGSYM    ---      WORD      x
      WR14        REGSYM    ---      WORD      y
      REG=3       REGSYM    ---      ---       dat
      WR12        REGSYM    ---      WORD      x
      WR14        REGSYM    ---      WORD      y
      WR12        REGSYM    ---      WORD      x
      WR14        REGSYM    ---      WORD      y
      R10         REGSYM    ---      BYTE      dat
      WR12        REGSYM    ---      WORD      x
      WR14        REGSYM    ---      WORD      y
      WR12        REGSYM    ---      WORD      x
      WR14        REGSYM    ---      WORD      y
      WR2         REGSYM    ---      WORD      dat
      WR12        REGSYM    ---      WORD      y
      R15         REGSYM    ---      BYTE      num
      R14         REGSYM    ---      BYTE      length
      DR12        REGSYM    ---      FLOAT     dat
      R7          REGSYM    ---      CHAR      point

      00FF54DAH   BLOCK     CODE     ---       LVL=0
      R7          REGSYM    ---      BYTE      dat
      00FF54DAH   LINE      CODE     ---       #569
      00FF54DAH   LINE      CODE     ---       #572
      00FF54DCH   LINE      CODE     ---       #573
      00FF54DEH   LINE      CODE     ---       #574
      00FF54E1H   LINE      CODE     ---       #575
L251 LINKER/LOCATER V4.66.93.0                                                        03/08/2024  18:54:18  PAGE 53


      00FF54E3H   LINE      CODE     ---       #576
      ---         BLOCKEND  ---      ---       LVL=0

      00FF54E4H   BLOCK     CODE     ---       LVL=0
      R7          REGSYM    ---      BYTE      dat
      00FF54E4H   LINE      CODE     ---       #584
      00FF54E4H   LINE      CODE     ---       #586
      00FF54E6H   LINE      CODE     ---       #587
      00FF54E8H   LINE      CODE     ---       #588
      00FF54EBH   LINE      CODE     ---       #589
      00FF54EDH   LINE      CODE     ---       #590
      ---         BLOCKEND  ---      ---       LVL=0

      00FF52ABH   BLOCK     CODE     ---       LVL=0
      WR4         REGSYM    ---      WORD      dat
      00FF52ADH   BLOCK     CODE     NEAR LAB  LVL=1
      0000046BH   SYMBOL    EDATA    ---       dat1
      ---         BLOCKEND  ---      ---       LVL=1
      00FF52ABH   LINE      CODE     ---       #598
      00FF52ADH   LINE      CODE     ---       #599
      00FF52ADH   LINE      CODE     ---       #602
      00FF52B1H   LINE      CODE     ---       #603
      00FF52B5H   LINE      CODE     ---       #605
      00FF52B7H   LINE      CODE     ---       #606
      00FF52B9H   LINE      CODE     ---       #607
      00FF52C0H   LINE      CODE     ---       #608
      00FF52C7H   LINE      CODE     ---       #609
      00FF52C9H   LINE      CODE     ---       #611
      ---         BLOCKEND  ---      ---       LVL=0

      00FF4CBAH   BLOCK     CODE     ---       LVL=0
      00000456H   SYMBOL    EDATA    WORD      x_start
      00000458H   SYMBOL    EDATA    WORD      y_start
      WR12        REGSYM    ---      WORD      x_end
      WR14        REGSYM    ---      WORD      y_end
      00FF4CBAH   LINE      CODE     ---       #622
      00FF4CC8H   LINE      CODE     ---       #627
      00FF4CCDH   LINE      CODE     ---       #628
      00FF4CD1H   LINE      CODE     ---       #630
      00FF4CD8H   LINE      CODE     ---       #631
      00FF4CDCH   LINE      CODE     ---       #632
      00FF4CE1H   LINE      CODE     ---       #634
      00FF4CE6H   LINE      CODE     ---       #635
      00FF4CEAH   LINE      CODE     ---       #637
      00FF4CF1H   LINE      CODE     ---       #638
      00FF4CF5H   LINE      CODE     ---       #639
      00FF4CFAH   LINE      CODE     ---       #656
      00FF4CFFH   LINE      CODE     ---       #657
      ---         BLOCKEND  ---      ---       LVL=0
      WR14        REGSYM    ---      INT       color
      R13         REGSYM    ---      BYTE      i
      R12         REGSYM    ---      BYTE      j
      WR2         REGSYM    ---      WORD      x
      WR0         REGSYM    ---      WORD      y
      WR14        REGSYM    ---      WORD      color
      WR12        REGSYM    ---      WORD      x
      WR14        REGSYM    ---      WORD      y
      REG=3       REGSYM    ---      ---       dat
      WR12        REGSYM    ---      WORD      x
      WR14        REGSYM    ---      WORD      y
      WR12        REGSYM    ---      WORD      x
      WR14        REGSYM    ---      WORD      y
      R10         REGSYM    ---      BYTE      dat
      WR12        REGSYM    ---      WORD      x
      WR14        REGSYM    ---      WORD      y
L251 LINKER/LOCATER V4.66.93.0                                                        03/08/2024  18:54:18  PAGE 54


      WR12        REGSYM    ---      WORD      x
      WR14        REGSYM    ---      WORD      y
      WR2         REGSYM    ---      WORD      dat
      WR12        REGSYM    ---      WORD      y
      R15         REGSYM    ---      BYTE      num
      R14         REGSYM    ---      BYTE      length
      DR12        REGSYM    ---      FLOAT     dat
      R7          REGSYM    ---      CHAR      point
      REG=3       REGSYM    ---      ---       p

      ---         MODULE    ---      ---       ABSOLUTE_ENCODER
      00FF0006H   PUBLIC    CODE     ---       encoder_delay_us
      000000D0H   SFRSYM    DATA     BYTE      PSW
      0000009DH   SFRSYM    DATA     BYTE      IRCBAND
      00000097H   SFRSYM    DATA     BYTE      AUXR2
      000000EFH   SFRSYM    DATA     BYTE      AUXINTIF
      000000FDH   SFRSYM    DATA     BYTE      S4CON
      000000ACH   SFRSYM    DATA     BYTE      S3CON
      0000009AH   SFRSYM    DATA     BYTE      S2CON
      000000B7H   SFRSYM    DATA     BYTE      IPH
      000000CDH   SFRSYM    DATA     BYTE      SPSTAT
      000000DDH   SFRSYM    DATA     BYTE      T4T3M
      000000C1H   SFRSYM    DATA     BYTE      WDT_CONTR
      000000DFH   SFRSYM    DATA     BYTE      IP3
      000000F4H   SFRSYM    DATA     BYTE      USBCON
      000000B5H   SFRSYM    DATA     BYTE      IP2
      000000FFH   SFRSYM    DATA     BYTE      RSTCFG
      000000C7H   SFRSYM    DATA     BYTE      IAP_CONTR
      000000F9H   SFRSYM    DATA     BYTE      LINICR
      0000008EH   SFRSYM    DATA     BYTE      AUXR
      000000AFH   SFRSYM    DATA     BYTE      IE2
      000000A0H.7 SFRSYM    DATA     BIT       P27
      000000A0H.6 SFRSYM    DATA     BIT       P26
      000000A0H.5 SFRSYM    DATA     BIT       P25
      000000A0H.4 SFRSYM    DATA     BIT       P24
      00000088H   SFRSYM    DATA     BYTE      TCON
      00000089H   SFRSYM    DATA     BYTE      TMOD
      00000098H   SFRSYM    DATA     BYTE      SCON
      000000A0H.2 SFRSYM    DATA     BIT       P22
      000000F1H   SFRSYM    DATA     BYTE      CANICR
      00000087H   SFRSYM    DATA     BYTE      PCON
      000000BCH   SFRSYM    DATA     BYTE      ADC_CONTR
      000000E7H   SFRSYM    DATA     BYTE      CMPCR2
      000000E6H   SFRSYM    DATA     BYTE      CMPCR1
      000000DEH   SFRSYM    DATA     BYTE      ADCCFG
      000000B8H   SFRSYM    DATA     BYTE      IP
      0000008FH   SFRSYM    DATA     BYTE      INTCLKO
      000000EEH   SFRSYM    DATA     BYTE      IP3H
      000000B6H   SFRSYM    DATA     BYTE      IP2H
      000000A8H   SFRSYM    DATA     BYTE      IE
      000000BBH   SFRSYM    DATA     BYTE      P_SW3
      000000BAH   SFRSYM    DATA     BYTE      P_SW2
      000000A2H   SFRSYM    DATA     BYTE      P_SW1
      000000CEH   SFRSYM    DATA     BYTE      SPCTL
      000000F8H   SFRSYM    DATA     BYTE      P7
      000000E8H   SFRSYM    DATA     BYTE      P6
      000000C8H   SFRSYM    DATA     BYTE      P5
      000000C0H   SFRSYM    DATA     BYTE      P4
      000000B0H   SFRSYM    DATA     BYTE      P3
      000000A0H   SFRSYM    DATA     BYTE      P2
      00000090H   SFRSYM    DATA     BYTE      P1
      00000080H   SFRSYM    DATA     BYTE      P0

      00FF0006H   BLOCK     CODE     ---       LVL=0
      WR6         REGSYM    ---      WORD      x
L251 LINKER/LOCATER V4.66.93.0                                                        03/08/2024  18:54:18  PAGE 55


      00FF0006H   LINE      CODE     ---       #28
      00FF0006H   LINE      CODE     ---       #30
      ---         BLOCKEND  ---      ---       LVL=0
      R6          REGSYM    ---      BYTE      byte
      R7          REGSYM    ---      BYTE      i
      R7          REGSYM    ---      BYTE      cmd
      R15         REGSYM    ---      BYTE      val
      R7          REGSYM    ---      BYTE      cmd
      REG=3       REGSYM    ---      ---       val
      R7          REGSYM    ---      BYTE      cmd
      R15         REGSYM    ---      BYTE      val
      R14         REGSYM    ---      BYTE      dat
      R7          REGSYM    ---      BYTE      cmd
      REG=3       REGSYM    ---      ---       val
      WR14        REGSYM    ---      WORD      zero_position
      WR14        REGSYM    ---      WORD      angle
      R10         REGSYM    ---      BYTE      byte
      R7          REGSYM    ---      BYTE      cmd
      R15         REGSYM    ---      BYTE      val
      R7          REGSYM    ---      BYTE      cmd
      REG=3       REGSYM    ---      ---       val
      R7          REGSYM    ---      BYTE      cmd
      R15         REGSYM    ---      BYTE      val
      R14         REGSYM    ---      BYTE      dat
      R7          REGSYM    ---      BYTE      cmd
      REG=3       REGSYM    ---      ---       val
      WR14        REGSYM    ---      WORD      zero_position
      WR14        REGSYM    ---      WORD      angle

      ---         MODULE    ---      ---       AT24C02
      000000D0H   SFRSYM    DATA     BYTE      PSW
      0000009DH   SFRSYM    DATA     BYTE      IRCBAND
      00000097H   SFRSYM    DATA     BYTE      AUXR2
      000000EFH   SFRSYM    DATA     BYTE      AUXINTIF
      000000FDH   SFRSYM    DATA     BYTE      S4CON
      000000ACH   SFRSYM    DATA     BYTE      S3CON
      0000009AH   SFRSYM    DATA     BYTE      S2CON
      000000B7H   SFRSYM    DATA     BYTE      IPH
      000000CDH   SFRSYM    DATA     BYTE      SPSTAT
      000000DDH   SFRSYM    DATA     BYTE      T4T3M
      000000C1H   SFRSYM    DATA     BYTE      WDT_CONTR
      000000DFH   SFRSYM    DATA     BYTE      IP3
      000000F4H   SFRSYM    DATA     BYTE      USBCON
      000000B5H   SFRSYM    DATA     BYTE      IP2
      000000FFH   SFRSYM    DATA     BYTE      RSTCFG
      000000C7H   SFRSYM    DATA     BYTE      IAP_CONTR
      000000F9H   SFRSYM    DATA     BYTE      LINICR
      0000008EH   SFRSYM    DATA     BYTE      AUXR
      000000AFH   SFRSYM    DATA     BYTE      IE2
      00000088H   SFRSYM    DATA     BYTE      TCON
      00000089H   SFRSYM    DATA     BYTE      TMOD
      000000A0H.3 SFRSYM    DATA     BIT       P23
      00000098H   SFRSYM    DATA     BYTE      SCON
      000000A0H.2 SFRSYM    DATA     BIT       P22
      000000F1H   SFRSYM    DATA     BYTE      CANICR
      00000087H   SFRSYM    DATA     BYTE      PCON
      000000BCH   SFRSYM    DATA     BYTE      ADC_CONTR
      000000E7H   SFRSYM    DATA     BYTE      CMPCR2
      000000E6H   SFRSYM    DATA     BYTE      CMPCR1
      000000DEH   SFRSYM    DATA     BYTE      ADCCFG
      000000B8H   SFRSYM    DATA     BYTE      IP
      0000008FH   SFRSYM    DATA     BYTE      INTCLKO
      000000EEH   SFRSYM    DATA     BYTE      IP3H
      000000B6H   SFRSYM    DATA     BYTE      IP2H
      000000A8H   SFRSYM    DATA     BYTE      IE
L251 LINKER/LOCATER V4.66.93.0                                                        03/08/2024  18:54:18  PAGE 56


      000000BBH   SFRSYM    DATA     BYTE      P_SW3
      000000BAH   SFRSYM    DATA     BYTE      P_SW2
      000000A2H   SFRSYM    DATA     BYTE      P_SW1
      000000CEH   SFRSYM    DATA     BYTE      SPCTL
      000000F8H   SFRSYM    DATA     BYTE      P7
      000000E8H   SFRSYM    DATA     BYTE      P6
      000000C8H   SFRSYM    DATA     BYTE      P5
      000000C0H   SFRSYM    DATA     BYTE      P4
      000000B0H   SFRSYM    DATA     BYTE      P3
      000000A0H   SFRSYM    DATA     BYTE      P2
      00000090H   SFRSYM    DATA     BYTE      P1
      00000080H   SFRSYM    DATA     BYTE      P0
      00FF5411H   SYMBOL    CODE     ---       at24c02_simiic_stop
      00FF520CH   SYMBOL    CODE     ---       at24c02_simiic_sendack
      00FF0046H   SYMBOL    CODE     ---       at24c02_simiic_delay

      00FF0046H   BLOCK     CODE     ---       LVL=0
      WR6         REGSYM    ---      WORD      j
      00FF0046H   LINE      CODE     ---       #40
      00FF0046H   LINE      CODE     ---       #41
      00FF0046H   LINE      CODE     ---       #42
      00FF004AH   LINE      CODE     ---       #43
      00FF0052H   LINE      CODE     ---       #44
      ---         BLOCKEND  ---      ---       LVL=0

      00FF5411H   BLOCK     CODE     ---       LVL=0
      00FF5411H   LINE      CODE     ---       #58
      00FF5411H   LINE      CODE     ---       #60
      00FF5413H   LINE      CODE     ---       #61
      00FF5415H   LINE      CODE     ---       #62
      00FF5418H   LINE      CODE     ---       #63
      00FF541AH   LINE      CODE     ---       #64
      00FF541DH   LINE      CODE     ---       #65
      00FF541FH   LINE      CODE     ---       #66
      ---         BLOCKEND  ---      ---       LVL=0

      00FF520CH   BLOCK     CODE     ---       LVL=0
      R15         REGSYM    ---      BYTE      ack_dat
      00FF520CH   LINE      CODE     ---       #71
      00FF5210H   LINE      CODE     ---       #73
      00FF5212H   LINE      CODE     ---       #74
      00FF5215H   LINE      CODE     ---       #75
      00FF521DH   LINE      CODE     ---       #76
      00FF521FH   LINE      CODE     ---       #78
      00FF5221H   LINE      CODE     ---       #79
      00FF5224H   LINE      CODE     ---       #80
      00FF5226H   LINE      CODE     ---       #81
      00FF5229H   LINE      CODE     ---       #82
      ---         BLOCKEND  ---      ---       LVL=0
      R15         REGSYM    ---      BYTE      c
      R14         REGSYM    ---      BYTE      i
      R15         REGSYM    ---      BYTE      ack_x
      R13         REGSYM    ---      BYTE      i
      R14         REGSYM    ---      BYTE      c
      R13         REGSYM    ---      BYTE      dev_add
      R14         REGSYM    ---      BYTE      reg
      R15         REGSYM    ---      BYTE      dat
      R15         REGSYM    ---      BYTE      dev_add
      R14         REGSYM    ---      BYTE      reg
      R15         REGSYM    ---      BYTE      dat
      R14         REGSYM    ---      BYTE      byte_reg
      R15         REGSYM    ---      BYTE      dat
      R15         REGSYM    ---      BYTE      byte_reg
      REG=3       REGSYM    ---      ---       dat_add
      REG=3       REGSYM    ---      ---       dat_add
L251 LINKER/LOCATER V4.66.93.0                                                        03/08/2024  18:54:18  PAGE 57



      ---         MODULE    ---      ---       BLUETOOTH_CH9141
      00FF5375H   PUBLIC    CODE     ---       bluetooth_ch9141_uart_callback
      000000D0H   SFRSYM    DATA     BYTE      PSW
      0000009DH   SFRSYM    DATA     BYTE      IRCBAND
      00000097H   SFRSYM    DATA     BYTE      AUXR2
      000000EFH   SFRSYM    DATA     BYTE      AUXINTIF
      000000FDH   SFRSYM    DATA     BYTE      S4CON
      000000ACH   SFRSYM    DATA     BYTE      S3CON
      0000009AH   SFRSYM    DATA     BYTE      S2CON
      000000FEH   SFRSYM    DATA     BYTE      S4BUF
      000000B7H   SFRSYM    DATA     BYTE      IPH
      000000CDH   SFRSYM    DATA     BYTE      SPSTAT
      000000DDH   SFRSYM    DATA     BYTE      T4T3M
      000000C1H   SFRSYM    DATA     BYTE      WDT_CONTR
      000000DFH   SFRSYM    DATA     BYTE      IP3
      000000F4H   SFRSYM    DATA     BYTE      USBCON
      000000B5H   SFRSYM    DATA     BYTE      IP2
      000000FFH   SFRSYM    DATA     BYTE      RSTCFG
      000000C7H   SFRSYM    DATA     BYTE      IAP_CONTR
      000000F9H   SFRSYM    DATA     BYTE      LINICR
      0000008EH   SFRSYM    DATA     BYTE      AUXR
      000000AFH   SFRSYM    DATA     BYTE      IE2
      00000080H.7 SFRSYM    DATA     BIT       P07
      00000088H   SFRSYM    DATA     BYTE      TCON
      00000089H   SFRSYM    DATA     BYTE      TMOD
      00000098H   SFRSYM    DATA     BYTE      SCON
      000000F1H   SFRSYM    DATA     BYTE      CANICR
      00000087H   SFRSYM    DATA     BYTE      PCON
      000000BCH   SFRSYM    DATA     BYTE      ADC_CONTR
      000000E7H   SFRSYM    DATA     BYTE      CMPCR2
      000000E6H   SFRSYM    DATA     BYTE      CMPCR1
      000000DEH   SFRSYM    DATA     BYTE      ADCCFG
      000000B8H   SFRSYM    DATA     BYTE      IP
      0000008FH   SFRSYM    DATA     BYTE      INTCLKO
      000000EEH   SFRSYM    DATA     BYTE      IP3H
      000000B6H   SFRSYM    DATA     BYTE      IP2H
      000000A8H   SFRSYM    DATA     BYTE      IE
      000000BBH   SFRSYM    DATA     BYTE      P_SW3
      000000BAH   SFRSYM    DATA     BYTE      P_SW2
      000000A2H   SFRSYM    DATA     BYTE      P_SW1
      000000CEH   SFRSYM    DATA     BYTE      SPCTL
      000000F8H   SFRSYM    DATA     BYTE      P7
      000000E8H   SFRSYM    DATA     BYTE      P6
      000000C8H   SFRSYM    DATA     BYTE      P5
      000000C0H   SFRSYM    DATA     BYTE      P4
      000000B0H   SFRSYM    DATA     BYTE      P3
      000000A0H   SFRSYM    DATA     BYTE      P2
      00000090H   SFRSYM    DATA     BYTE      P1
      00000080H   SFRSYM    DATA     BYTE      P0
      000002E1H   SYMBOL    EDATA    ---       bluetooth_ch9141_buffer
      00000321H   SYMBOL    EDATA    BYTE      bluetooth_ch9141_data
      00000322H   SYMBOL    EDATA    ---       bluetooth_ch9141_fifo

      00FF5375H   BLOCK     CODE     ---       LVL=0
      00FF5375H   LINE      CODE     ---       #56
      00FF5375H   LINE      CODE     ---       #59
      00FF537BH   LINE      CODE     ---       #60
      ---         BLOCKEND  ---      ---       LVL=0
      DR12        REGSYM    ---      DWORD     len
      REG=7       REGSYM    ---      ---       buff
      DR8         REGSYM    ---      DWORD     len

      ---         MODULE    ---      ---       DL1A
      00000466H   PUBLIC    EDATA    WORD      dl1a_distance_mm
L251 LINKER/LOCATER V4.66.93.0                                                        03/08/2024  18:54:18  PAGE 58


      00000468H   PUBLIC    EDATA    BYTE      dl1a_finsh_flag
      000000D0H   SFRSYM    DATA     BYTE      PSW
      0000009DH   SFRSYM    DATA     BYTE      IRCBAND
      00000097H   SFRSYM    DATA     BYTE      AUXR2
      000000EFH   SFRSYM    DATA     BYTE      AUXINTIF
      000000FDH   SFRSYM    DATA     BYTE      S4CON
      000000ACH   SFRSYM    DATA     BYTE      S3CON
      0000009AH   SFRSYM    DATA     BYTE      S2CON
      000000B7H   SFRSYM    DATA     BYTE      IPH
      000000CDH   SFRSYM    DATA     BYTE      SPSTAT
      000000DDH   SFRSYM    DATA     BYTE      T4T3M
      000000C1H   SFRSYM    DATA     BYTE      WDT_CONTR
      000000DFH   SFRSYM    DATA     BYTE      IP3
      000000F4H   SFRSYM    DATA     BYTE      USBCON
      000000B5H   SFRSYM    DATA     BYTE      IP2
      000000FFH   SFRSYM    DATA     BYTE      RSTCFG
      000000C7H   SFRSYM    DATA     BYTE      IAP_CONTR
      000000F9H   SFRSYM    DATA     BYTE      LINICR
      0000008EH   SFRSYM    DATA     BYTE      AUXR
      000000AFH   SFRSYM    DATA     BYTE      IE2
      000000B0H.7 SFRSYM    DATA     BIT       P37
      000000B0H.6 SFRSYM    DATA     BIT       P36
      000000C8H.2 SFRSYM    DATA     BIT       P52
      00000088H   SFRSYM    DATA     BYTE      TCON
      00000089H   SFRSYM    DATA     BYTE      TMOD
      00000098H   SFRSYM    DATA     BYTE      SCON
      000000F1H   SFRSYM    DATA     BYTE      CANICR
      00000087H   SFRSYM    DATA     BYTE      PCON
      000000BCH   SFRSYM    DATA     BYTE      ADC_CONTR
      000000E7H   SFRSYM    DATA     BYTE      CMPCR2
      000000E6H   SFRSYM    DATA     BYTE      CMPCR1
      000000DEH   SFRSYM    DATA     BYTE      ADCCFG
      000000B8H   SFRSYM    DATA     BYTE      IP
      0000008FH   SFRSYM    DATA     BYTE      INTCLKO
      000000EEH   SFRSYM    DATA     BYTE      IP3H
      000000B6H   SFRSYM    DATA     BYTE      IP2H
      000000A8H   SFRSYM    DATA     BYTE      IE
      000000BBH   SFRSYM    DATA     BYTE      P_SW3
      000000BAH   SFRSYM    DATA     BYTE      P_SW2
      000000A2H   SFRSYM    DATA     BYTE      P_SW1
      000000CEH   SFRSYM    DATA     BYTE      SPCTL
      000000F8H   SFRSYM    DATA     BYTE      P7
      000000E8H   SFRSYM    DATA     BYTE      P6
      000000C8H   SFRSYM    DATA     BYTE      P5
      000000C0H   SFRSYM    DATA     BYTE      P4
      000000B0H   SFRSYM    DATA     BYTE      P3
      000000A0H   SFRSYM    DATA     BYTE      P2
      00000090H   SFRSYM    DATA     BYTE      P1
      00000080H   SFRSYM    DATA     BYTE      P0
      00FF522CH   SYMBOL    CODE     ---       dl1a_simiic_sendack
      00FF4E43H   SYMBOL    CODE     ---       dl1a_timeout_microseconds_to_mclks
      00FF4DC8H   SYMBOL    CODE     ---       dl1a_timeout_mclks_to_microseconds
      00FF4E7FH   SYMBOL    CODE     ---       dl1a_read_ch
      00FF5444H   SYMBOL    CODE     ---       dl1a_decode_timeout
      00FF4F8EH   SYMBOL    CODE     ---       dl1a_send_ch
      00FF4F2AH   SYMBOL    CODE     ---       dl1a_encode_timeout
      00FF4ACFH   SYMBOL    CODE     ---       dl1a_get_sequence_step_enables
      00FF0026H   SYMBOL    CODE     ---       dl1a_sccb_waitack
      00FF54ACH   SYMBOL    CODE     ---       dl1a_simiic_delay
      00FF4920H   SYMBOL    CODE     ---       dl1a_get_sequence_step_timeouts
      00FF5464H   SYMBOL    CODE     ---       dl1a_simiic_start
      00FF4B7BH   SYMBOL    CODE     ---       dl1a_simiic_read_regs
      00FF4EF5H   SYMBOL    CODE     ---       dl1a_simiic_write_dats
      00FF5422H   SYMBOL    CODE     ---       dl1a_simiic_stop
      00FF4C21H   SYMBOL    CODE     ---       dl1a_get_vcsel_pulse_period
L251 LINKER/LOCATER V4.66.93.0                                                        03/08/2024  18:54:18  PAGE 59



      00FF54ACH   BLOCK     CODE     ---       LVL=0
      WR6         REGSYM    ---      WORD      j
      00FF54ACH   LINE      CODE     ---       #44
      00FF54ACH   LINE      CODE     ---       #45
      00FF54ACH   LINE      CODE     ---       #46
      00FF54B0H   LINE      CODE     ---       #47
      00FF54B8H   LINE      CODE     ---       #48
      ---         BLOCKEND  ---      ---       LVL=0

      00FF5464H   BLOCK     CODE     ---       LVL=0
      00FF5464H   LINE      CODE     ---       #51
      00FF5464H   LINE      CODE     ---       #53
      00FF5466H   LINE      CODE     ---       #54
      00FF5468H   LINE      CODE     ---       #55
      00FF546BH   LINE      CODE     ---       #56
      00FF546DH   LINE      CODE     ---       #57
      00FF5470H   LINE      CODE     ---       #58
      00FF5472H   LINE      CODE     ---       #59
      ---         BLOCKEND  ---      ---       LVL=0

      00FF5422H   BLOCK     CODE     ---       LVL=0
      00FF5422H   LINE      CODE     ---       #62
      00FF5422H   LINE      CODE     ---       #64
      00FF5424H   LINE      CODE     ---       #65
      00FF5426H   LINE      CODE     ---       #66
      00FF5429H   LINE      CODE     ---       #67
      00FF542BH   LINE      CODE     ---       #68
      00FF542EH   LINE      CODE     ---       #69
      00FF5430H   LINE      CODE     ---       #70
      ---         BLOCKEND  ---      ---       LVL=0

      00FF522CH   BLOCK     CODE     ---       LVL=0
      R15         REGSYM    ---      BYTE      ack_dat
      00FF522CH   LINE      CODE     ---       #75
      00FF5230H   LINE      CODE     ---       #77
      00FF5232H   LINE      CODE     ---       #78
      00FF5235H   LINE      CODE     ---       #79
      00FF523DH   LINE      CODE     ---       #80
      00FF523FH   LINE      CODE     ---       #82
      00FF5241H   LINE      CODE     ---       #83
      00FF5244H   LINE      CODE     ---       #84
      00FF5246H   LINE      CODE     ---       #85
      00FF5249H   LINE      CODE     ---       #86
      ---         BLOCKEND  ---      ---       LVL=0

      00FF0026H   BLOCK     CODE     ---       LVL=0
      00FF0026H   LINE      CODE     ---       #89
      00FF0026H   LINE      CODE     ---       #91
      00FF0028H   LINE      CODE     ---       #93
      00FF002BH   LINE      CODE     ---       #95
      00FF002DH   LINE      CODE     ---       #96
      00FF0030H   LINE      CODE     ---       #98
      00FF0033H   LINE      CODE     ---       #101
      00FF0035H   LINE      CODE     ---       #102
      00FF0038H   LINE      CODE     ---       #103
      00FF0038H   LINE      CODE     ---       #105
      00FF003AH   LINE      CODE     ---       #106
      00FF003DH   LINE      CODE     ---       #107
      00FF0041H   LINE      CODE     ---       #108
      ---         BLOCKEND  ---      ---       LVL=0

      00FF4F8EH   BLOCK     CODE     ---       LVL=0
      R15         REGSYM    ---      BYTE      c
      00FF4F92H   BLOCK     CODE     NEAR LAB  LVL=1
L251 LINKER/LOCATER V4.66.93.0                                                        03/08/2024  18:54:18  PAGE 60


      R14         REGSYM    ---      BYTE      i
      ---         BLOCKEND  ---      ---       LVL=1
      00FF4F8EH   LINE      CODE     ---       #114
      00FF4F92H   LINE      CODE     ---       #115
      00FF4F92H   LINE      CODE     ---       #116
      00FF4F95H   LINE      CODE     ---       #117
      00FF4F97H   LINE      CODE     ---       #119
      00FF4FA0H   LINE      CODE     ---       #120
      00FF4FA2H   LINE      CODE     ---       #121
      00FF4FA4H   LINE      CODE     ---       #122
      00FF4FA7H   LINE      CODE     ---       #123
      00FF4FA9H   LINE      CODE     ---       #124
      00FF4FACH   LINE      CODE     ---       #125
      00FF4FAEH   LINE      CODE     ---       #126
      00FF4FB6H   LINE      CODE     ---       #127
      00FF4FB9H   LINE      CODE     ---       #128
      ---         BLOCKEND  ---      ---       LVL=0

      00FF4E7FH   BLOCK     CODE     ---       LVL=0
      R15         REGSYM    ---      BYTE      ack_x
      00FF4E85H   BLOCK     CODE     NEAR LAB  LVL=1
      R13         REGSYM    ---      BYTE      i
      R14         REGSYM    ---      BYTE      c
      ---         BLOCKEND  ---      ---       LVL=1
      00FF4E7FH   LINE      CODE     ---       #134
      00FF4E85H   LINE      CODE     ---       #135
      00FF4E85H   LINE      CODE     ---       #138
      00FF4E87H   LINE      CODE     ---       #139
      00FF4E89H   LINE      CODE     ---       #140
      00FF4E8CH   LINE      CODE     ---       #141
      00FF4E8EH   LINE      CODE     ---       #143
      00FF4E91H   LINE      CODE     ---       #145
      00FF4E94H   LINE      CODE     ---       #146
      00FF4E96H   LINE      CODE     ---       #147
      00FF4E99H   LINE      CODE     ---       #148
      00FF4E9BH   LINE      CODE     ---       #149
      00FF4E9EH   LINE      CODE     ---       #150
      00FF4EA0H   LINE      CODE     ---       #151
      00FF4EA3H   LINE      CODE     ---       #153
      00FF4EA5H   LINE      CODE     ---       #154
      00FF4EA9H   LINE      CODE     ---       #157
      00FF4EABH   LINE      CODE     ---       #158
      00FF4EAEH   LINE      CODE     ---       #159
      00FF4EB3H   LINE      CODE     ---       #161
      00FF4EB5H   LINE      CODE     ---       #162
      ---         BLOCKEND  ---      ---       LVL=0

      00FF4EF5H   BLOCK     CODE     ---       LVL=0
      00000445H   SYMBOL    EDATA    BYTE      dev_add
      00000446H   SYMBOL    EDATA    ---       dat
      DR12        REGSYM    ---      DWORD     len
      00FF4EF5H   LINE      CODE     ---       #173
      00FF4F01H   LINE      CODE     ---       #175
      00FF4F04H   LINE      CODE     ---       #176
      00FF4F0AH   LINE      CODE     ---       #177
      00FF4F0CH   LINE      CODE     ---       #179
      00FF4F1CH   LINE      CODE     ---       #180
      00FF4F24H   LINE      CODE     ---       #183
      00FF4F27H   LINE      CODE     ---       #184
      ---         BLOCKEND  ---      ---       LVL=0
      R13         REGSYM    ---      BYTE      dev_add
      R14         REGSYM    ---      BYTE      reg
      R15         REGSYM    ---      BYTE      dat
      R15         REGSYM    ---      BYTE      dev_add
      R14         REGSYM    ---      BYTE      reg
L251 LINKER/LOCATER V4.66.93.0                                                        03/08/2024  18:54:18  PAGE 61


      R15         REGSYM    ---      BYTE      dat

      00FF4B7BH   BLOCK     CODE     ---       LVL=0
      00000434H   SYMBOL    EDATA    BYTE      dev_add
      00000435H   SYMBOL    EDATA    BYTE      reg
      REG=3       REGSYM    ---      ---       dat_add
      00000436H   SYMBOL    EDATA    DWORD     num
      00FF4B7BH   LINE      CODE     ---       #238
      00FF4B87H   LINE      CODE     ---       #240
      00FF4B8AH   LINE      CODE     ---       #241
      00FF4B93H   LINE      CODE     ---       #242
      00FF4B9AH   LINE      CODE     ---       #245
      00FF4B9DH   LINE      CODE     ---       #246
      00FF4BA8H   LINE      CODE     ---       #247
      00FF4BAAH   LINE      CODE     ---       #249
      00FF4BB2H   LINE      CODE     ---       #250
      00FF4BB4H   LINE      CODE     ---       #251
      00FF4BC2H   LINE      CODE     ---       #252
      00FF4BC9H   LINE      CODE     ---       #253
      00FF4BCCH   LINE      CODE     ---       #254
      ---         BLOCKEND  ---      ---       LVL=0
      REG=3       REGSYM    ---      ---       dat_add
      REG=3       REGSYM    ---      ---       type_is_aperture

      00FF4DC8H   BLOCK     CODE     ---       LVL=0
      WR30        REGSYM    ---      WORD      timeout_period_mclks
      R5          REGSYM    ---      BYTE      vcsel_period_pclks
      00FF4DCAH   BLOCK     CODE     NEAR LAB  LVL=1
      DR24        REGSYM    ---      DWORD     macro_period_ns
      ---         BLOCKEND  ---      ---       LVL=1
      00FF4DC8H   LINE      CODE     ---       #381
      00FF4DCAH   LINE      CODE     ---       #382
      00FF4DCAH   LINE      CODE     ---       #383
      00FF4DEBH   LINE      CODE     ---       #385
      ---         BLOCKEND  ---      ---       LVL=0

      00FF4E43H   BLOCK     CODE     ---       LVL=0
      DR28        REGSYM    ---      DWORD     timeout_period_us
      R3          REGSYM    ---      BYTE      vcsel_period_pclks
      00FF4E45H   BLOCK     CODE     NEAR LAB  LVL=1
      DR8         REGSYM    ---      DWORD     macro_period_ns
      ---         BLOCKEND  ---      ---       LVL=1
      00FF4E43H   LINE      CODE     ---       #396
      00FF4E45H   LINE      CODE     ---       #397
      00FF4E45H   LINE      CODE     ---       #398
      00FF4E66H   LINE      CODE     ---       #400
      ---         BLOCKEND  ---      ---       LVL=0

      00FF5444H   BLOCK     CODE     ---       LVL=0
      WR4         REGSYM    ---      WORD      reg_val
      00FF5444H   LINE      CODE     ---       #410
      00FF5446H   LINE      CODE     ---       #413
      00FF5453H   LINE      CODE     ---       #415
      ---         BLOCKEND  ---      ---       LVL=0

      00FF4F2AH   BLOCK     CODE     ---       LVL=0
      WR2         REGSYM    ---      WORD      timeout_mclks
      00FF4F2CH   BLOCK     CODE     NEAR LAB  LVL=1
      DR8         REGSYM    ---      DWORD     ls_byte
      WR4         REGSYM    ---      WORD      ms_byte
      WR6         REGSYM    ---      WORD      return_data
      ---         BLOCKEND  ---      ---       LVL=1
      00FF4F2AH   LINE      CODE     ---       #424
      00FF4F2CH   LINE      CODE     ---       #425
      00FF4F2CH   LINE      CODE     ---       #426
L251 LINKER/LOCATER V4.66.93.0                                                        03/08/2024  18:54:18  PAGE 62


      00FF4F2CH   LINE      CODE     ---       #427
      00FF4F30H   LINE      CODE     ---       #428
      00FF4F30H   LINE      CODE     ---       #430
      00FF4F36H   LINE      CODE     ---       #433
      00FF4F3CH   LINE      CODE     ---       #434
      00FF4F3EH   LINE      CODE     ---       #436
      00FF4F47H   LINE      CODE     ---       #437
      00FF4F49H   LINE      CODE     ---       #438
      00FF4F53H   LINE      CODE     ---       #439
      00FF4F5DH   LINE      CODE     ---       #440
      00FF4F5DH   LINE      CODE     ---       #441
      00FF4F5DH   LINE      CODE     ---       #442
      ---         BLOCKEND  ---      ---       LVL=0

      00FF4ACFH   BLOCK     CODE     ---       LVL=0
      REG=3       REGSYM    ---      ---       enables
      00FF4AD3H   BLOCK     CODE     NEAR LAB  LVL=1
      00000472H   SYMBOL    EDATA    BYTE      sequence_config
      ---         BLOCKEND  ---      ---       LVL=1
      00FF4ACFH   LINE      CODE     ---       #451
      00FF4AD3H   LINE      CODE     ---       #452
      00FF4AD3H   LINE      CODE     ---       #453
      00FF4AD8H   LINE      CODE     ---       #454
      00FF4AE9H   LINE      CODE     ---       #456
      00FF4AF3H   LINE      CODE     ---       #457
      00FF4AFFH   LINE      CODE     ---       #458
      00FF4B0DH   LINE      CODE     ---       #459
      00FF4B19H   LINE      CODE     ---       #460
      00FF4B24H   LINE      CODE     ---       #461
      ---         BLOCKEND  ---      ---       LVL=0

      00FF4C21H   BLOCK     CODE     ---       LVL=0
      WR6         REGSYM    ---      INT       type
      00000473H   SYMBOL    EDATA    BYTE      data_buffer
      00FF4C21H   LINE      CODE     ---       #470
      00FF4C21H   LINE      CODE     ---       #471
      00FF4C21H   LINE      CODE     ---       #472
      00FF4C26H   LINE      CODE     ---       #473
      00FF4C2AH   LINE      CODE     ---       #475
      00FF4C37H   LINE      CODE     ---       #476
      00FF4C37H   LINE      CODE     ---       #477
      00FF4C39H   LINE      CODE     ---       #478
      00FF4C3FH   LINE      CODE     ---       #480
      00FF4C53H   LINE      CODE     ---       #481
      00FF4C61H   LINE      CODE     ---       #482
      00FF4C63H   LINE      CODE     ---       #485
      00FF4C69H   LINE      CODE     ---       #486
      00FF4C69H   LINE      CODE     ---       #487
      00FF4C6DH   LINE      CODE     ---       #488
      ---         BLOCKEND  ---      ---       LVL=0

      00FF4920H   BLOCK     CODE     ---       LVL=0
      0000043AH   SYMBOL    EDATA    ---       enables
      REG=3       REGSYM    ---      ---       timeouts
      00FF4928H   BLOCK     CODE     NEAR LAB  LVL=1
      0000043EH   SYMBOL    EDATA    ---       reg_buffer
      WR6         REGSYM    ---      WORD      reg16_buffer
      ---         BLOCKEND  ---      ---       LVL=1
      00FF4920H   LINE      CODE     ---       #498
      00FF4928H   LINE      CODE     ---       #499
      00FF4928H   LINE      CODE     ---       #501
      00FF4928H   LINE      CODE     ---       #503
      00FF4932H   LINE      CODE     ---       #505
      00FF4946H   LINE      CODE     ---       #506
      00FF4952H   LINE      CODE     ---       #507
L251 LINKER/LOCATER V4.66.93.0                                                        03/08/2024  18:54:18  PAGE 63


      00FF4960H   LINE      CODE     ---       #509
      00FF4974H   LINE      CODE     ---       #510
      00FF4980H   LINE      CODE     ---       #511
      00FF4987H   LINE      CODE     ---       #512
      00FF4995H   LINE      CODE     ---       #514
      00FF49A2H   LINE      CODE     ---       #516
      00FF49B6H   LINE      CODE     ---       #517
      00FF49C2H   LINE      CODE     ---       #518
      00FF49C9H   LINE      CODE     ---       #520
      00FF49D3H   LINE      CODE     ---       #522
      00FF49E5H   LINE      CODE     ---       #523
      00FF49E5H   LINE      CODE     ---       #525
      00FF49F8H   LINE      CODE     ---       #526
      ---         BLOCKEND  ---      ---       LVL=0
      R10         REGSYM    ---      BYTE      vhv_init_byte
      R15         REGSYM    ---      BYTE      return_state
      DR12        REGSYM    ---      DWORD     budget_us
      WR6         REGSYM    ---      WORD      dat
      DR4         REGSYM    ---      DWORD     final_range_timeout_us
      WR6         REGSYM    ---      WORD      final_range_timeout_mclks
      DR12        REGSYM    ---      DWORD     budget_us
      DR4         REGSYM    ---      FLOAT     limit_mcps
      WR6         REGSYM    ---      WORD      limit_mcps_16bit
      R15         REGSYM    ---      BYTE      return_state
      R14         REGSYM    ---      BYTE      reg_data_buffer
      R13         REGSYM    ---      BYTE      i

      ---         MODULE    ---      ---       DL1B
      0000045AH   PUBLIC    EDATA    WORD      dl1b_distance_mm
      0000045CH   PUBLIC    EDATA    BYTE      dl1b_finsh_flag
      0000045DH   PUBLIC    EDATA    BYTE      dl1b_init_flag
      000000D0H   SFRSYM    DATA     BYTE      PSW
      0000009DH   SFRSYM    DATA     BYTE      IRCBAND
      00000097H   SFRSYM    DATA     BYTE      AUXR2
      000000EFH   SFRSYM    DATA     BYTE      AUXINTIF
      000000FDH   SFRSYM    DATA     BYTE      S4CON
      000000ACH   SFRSYM    DATA     BYTE      S3CON
      0000009AH   SFRSYM    DATA     BYTE      S2CON
      000000B7H   SFRSYM    DATA     BYTE      IPH
      000000CDH   SFRSYM    DATA     BYTE      SPSTAT
      000000DDH   SFRSYM    DATA     BYTE      T4T3M
      000000C1H   SFRSYM    DATA     BYTE      WDT_CONTR
      000000DFH   SFRSYM    DATA     BYTE      IP3
      000000F4H   SFRSYM    DATA     BYTE      USBCON
      000000B5H   SFRSYM    DATA     BYTE      IP2
      000000FFH   SFRSYM    DATA     BYTE      RSTCFG
      000000C7H   SFRSYM    DATA     BYTE      IAP_CONTR
      000000F9H   SFRSYM    DATA     BYTE      LINICR
      0000008EH   SFRSYM    DATA     BYTE      AUXR
      000000AFH   SFRSYM    DATA     BYTE      IE2
      000000B0H.7 SFRSYM    DATA     BIT       P37
      000000B0H.6 SFRSYM    DATA     BIT       P36
      000000C8H.2 SFRSYM    DATA     BIT       P52
      00000088H   SFRSYM    DATA     BYTE      TCON
      00000089H   SFRSYM    DATA     BYTE      TMOD
      00000098H   SFRSYM    DATA     BYTE      SCON
      000000F1H   SFRSYM    DATA     BYTE      CANICR
      00000087H   SFRSYM    DATA     BYTE      PCON
      000000BCH   SFRSYM    DATA     BYTE      ADC_CONTR
      000000E7H   SFRSYM    DATA     BYTE      CMPCR2
      000000E6H   SFRSYM    DATA     BYTE      CMPCR1
      000000DEH   SFRSYM    DATA     BYTE      ADCCFG
      000000B8H   SFRSYM    DATA     BYTE      IP
      0000008FH   SFRSYM    DATA     BYTE      INTCLKO
      000000EEH   SFRSYM    DATA     BYTE      IP3H
L251 LINKER/LOCATER V4.66.93.0                                                        03/08/2024  18:54:18  PAGE 64


      000000B6H   SFRSYM    DATA     BYTE      IP2H
      000000A8H   SFRSYM    DATA     BYTE      IE
      000000BBH   SFRSYM    DATA     BYTE      P_SW3
      000000BAH   SFRSYM    DATA     BYTE      P_SW2
      000000A2H   SFRSYM    DATA     BYTE      P_SW1
      000000CEH   SFRSYM    DATA     BYTE      SPCTL
      000000F8H   SFRSYM    DATA     BYTE      P7
      000000E8H   SFRSYM    DATA     BYTE      P6
      000000C8H   SFRSYM    DATA     BYTE      P5
      000000C0H   SFRSYM    DATA     BYTE      P4
      000000B0H   SFRSYM    DATA     BYTE      P3
      000000A0H   SFRSYM    DATA     BYTE      P2
      00000090H   SFRSYM    DATA     BYTE      P1
      00000080H   SFRSYM    DATA     BYTE      P0
      00FF524CH   SYMBOL    CODE     ---       dl1b_simiic_sendack
      00FF4EBAH   SYMBOL    CODE     ---       dl1b_read_ch
      00FF4FBCH   SYMBOL    CODE     ---       dl1b_send_ch
      00FF0066H   SYMBOL    CODE     ---       dl1b_sccb_waitack
      00FF54C4H   SYMBOL    CODE     ---       dl1b_simiic_delay

      00FF54C4H   BLOCK     CODE     ---       LVL=0
      WR6         REGSYM    ---      WORD      j
      00FF54C4H   LINE      CODE     ---       #45
      00FF54C4H   LINE      CODE     ---       #46
      00FF54C4H   LINE      CODE     ---       #47
      00FF54C6H   LINE      CODE     ---       #48
      00FF54CEH   LINE      CODE     ---       #49
      ---         BLOCKEND  ---      ---       LVL=0

      00FF524CH   BLOCK     CODE     ---       LVL=0
      R15         REGSYM    ---      BYTE      ack_dat
      00FF524CH   LINE      CODE     ---       #76
      00FF5250H   LINE      CODE     ---       #78
      00FF5252H   LINE      CODE     ---       #79
      00FF5255H   LINE      CODE     ---       #80
      00FF525DH   LINE      CODE     ---       #81
      00FF525FH   LINE      CODE     ---       #83
      00FF5261H   LINE      CODE     ---       #84
      00FF5264H   LINE      CODE     ---       #85
      00FF5266H   LINE      CODE     ---       #86
      00FF5269H   LINE      CODE     ---       #87
      ---         BLOCKEND  ---      ---       LVL=0

      00FF0066H   BLOCK     CODE     ---       LVL=0
      00FF0066H   LINE      CODE     ---       #90
      00FF0066H   LINE      CODE     ---       #92
      00FF0068H   LINE      CODE     ---       #94
      00FF006BH   LINE      CODE     ---       #96
      00FF006DH   LINE      CODE     ---       #97
      00FF0070H   LINE      CODE     ---       #99
      00FF0073H   LINE      CODE     ---       #102
      00FF0075H   LINE      CODE     ---       #103
      00FF0078H   LINE      CODE     ---       #104
      00FF0078H   LINE      CODE     ---       #106
      00FF007AH   LINE      CODE     ---       #107
      00FF007DH   LINE      CODE     ---       #108
      00FF0081H   LINE      CODE     ---       #109
      ---         BLOCKEND  ---      ---       LVL=0

      00FF4FBCH   BLOCK     CODE     ---       LVL=0
      R15         REGSYM    ---      BYTE      c
      00FF4FC0H   BLOCK     CODE     NEAR LAB  LVL=1
      R14         REGSYM    ---      BYTE      i
      ---         BLOCKEND  ---      ---       LVL=1
      00FF4FBCH   LINE      CODE     ---       #115
L251 LINKER/LOCATER V4.66.93.0                                                        03/08/2024  18:54:18  PAGE 65


      00FF4FC0H   LINE      CODE     ---       #116
      00FF4FC0H   LINE      CODE     ---       #117
      00FF4FC3H   LINE      CODE     ---       #118
      00FF4FC5H   LINE      CODE     ---       #120
      00FF4FCEH   LINE      CODE     ---       #121
      00FF4FD0H   LINE      CODE     ---       #122
      00FF4FD2H   LINE      CODE     ---       #123
      00FF4FD5H   LINE      CODE     ---       #124
      00FF4FD7H   LINE      CODE     ---       #125
      00FF4FDAH   LINE      CODE     ---       #126
      00FF4FDCH   LINE      CODE     ---       #127
      00FF4FE4H   LINE      CODE     ---       #128
      00FF4FE7H   LINE      CODE     ---       #129
      ---         BLOCKEND  ---      ---       LVL=0

      00FF4EBAH   BLOCK     CODE     ---       LVL=0
      R15         REGSYM    ---      BYTE      ack_x
      00FF4EC0H   BLOCK     CODE     NEAR LAB  LVL=1
      R13         REGSYM    ---      BYTE      i
      R14         REGSYM    ---      BYTE      c
      ---         BLOCKEND  ---      ---       LVL=1
      00FF4EBAH   LINE      CODE     ---       #135
      00FF4EC0H   LINE      CODE     ---       #136
      00FF4EC0H   LINE      CODE     ---       #139
      00FF4EC2H   LINE      CODE     ---       #140
      00FF4EC4H   LINE      CODE     ---       #141
      00FF4EC7H   LINE      CODE     ---       #142
      00FF4EC9H   LINE      CODE     ---       #144
      00FF4ECCH   LINE      CODE     ---       #146
      00FF4ECFH   LINE      CODE     ---       #147
      00FF4ED1H   LINE      CODE     ---       #148
      00FF4ED4H   LINE      CODE     ---       #149
      00FF4ED6H   LINE      CODE     ---       #150
      00FF4ED9H   LINE      CODE     ---       #151
      00FF4EDBH   LINE      CODE     ---       #152
      00FF4EDEH   LINE      CODE     ---       #154
      00FF4EE0H   LINE      CODE     ---       #155
      00FF4EE4H   LINE      CODE     ---       #158
      00FF4EE6H   LINE      CODE     ---       #159
      00FF4EE9H   LINE      CODE     ---       #160
      00FF4EEEH   LINE      CODE     ---       #162
      00FF4EF0H   LINE      CODE     ---       #163
      ---         BLOCKEND  ---      ---       LVL=0
      DR12        REGSYM    ---      DWORD     write_len
      WR14        REGSYM    ---      INT       dl1b_distance_temp
      R15         REGSYM    ---      BYTE      return_state
      WR12        REGSYM    ---      WORD      time_out_count

      ---         MODULE    ---      ---       FONT
      00FF212DH   PUBLIC    CODE     ---       ascii_font_8x16
      00FF271DH   PUBLIC    CODE     ---       oled_8x16
      00FF2D0DH   PUBLIC    CODE     ---       tft_ascii
      00FF32FDH   PUBLIC    CODE     ---       ascii_font_6x8
      00FF3525H   PUBLIC    CODE     ---       oled_6x8
      000000D0H   SFRSYM    DATA     BYTE      PSW
      0000009DH   SFRSYM    DATA     BYTE      IRCBAND
      00000097H   SFRSYM    DATA     BYTE      AUXR2
      000000EFH   SFRSYM    DATA     BYTE      AUXINTIF
      000000FDH   SFRSYM    DATA     BYTE      S4CON
      000000ACH   SFRSYM    DATA     BYTE      S3CON
      0000009AH   SFRSYM    DATA     BYTE      S2CON
      000000B7H   SFRSYM    DATA     BYTE      IPH
      000000CDH   SFRSYM    DATA     BYTE      SPSTAT
      000000DDH   SFRSYM    DATA     BYTE      T4T3M
      000000C1H   SFRSYM    DATA     BYTE      WDT_CONTR
L251 LINKER/LOCATER V4.66.93.0                                                        03/08/2024  18:54:18  PAGE 66


      000000DFH   SFRSYM    DATA     BYTE      IP3
      000000F4H   SFRSYM    DATA     BYTE      USBCON
      000000B5H   SFRSYM    DATA     BYTE      IP2
      000000FFH   SFRSYM    DATA     BYTE      RSTCFG
      000000C7H   SFRSYM    DATA     BYTE      IAP_CONTR
      000000F9H   SFRSYM    DATA     BYTE      LINICR
      0000008EH   SFRSYM    DATA     BYTE      AUXR
      000000AFH   SFRSYM    DATA     BYTE      IE2
      00000088H   SFRSYM    DATA     BYTE      TCON
      00000089H   SFRSYM    DATA     BYTE      TMOD
      00000098H   SFRSYM    DATA     BYTE      SCON
      000000F1H   SFRSYM    DATA     BYTE      CANICR
      00000087H   SFRSYM    DATA     BYTE      PCON
      000000BCH   SFRSYM    DATA     BYTE      ADC_CONTR
      000000E7H   SFRSYM    DATA     BYTE      CMPCR2
      000000E6H   SFRSYM    DATA     BYTE      CMPCR1
      000000DEH   SFRSYM    DATA     BYTE      ADCCFG
      000000B8H   SFRSYM    DATA     BYTE      IP
      0000008FH   SFRSYM    DATA     BYTE      INTCLKO
      000000EEH   SFRSYM    DATA     BYTE      IP3H
      000000B6H   SFRSYM    DATA     BYTE      IP2H
      000000A8H   SFRSYM    DATA     BYTE      IE
      000000BBH   SFRSYM    DATA     BYTE      P_SW3
      000000BAH   SFRSYM    DATA     BYTE      P_SW2
      000000A2H   SFRSYM    DATA     BYTE      P_SW1
      000000CEH   SFRSYM    DATA     BYTE      SPCTL
      000000F8H   SFRSYM    DATA     BYTE      P7
      000000E8H   SFRSYM    DATA     BYTE      P6
      000000C8H   SFRSYM    DATA     BYTE      P5
      000000C0H   SFRSYM    DATA     BYTE      P4
      000000B0H   SFRSYM    DATA     BYTE      P3
      000000A0H   SFRSYM    DATA     BYTE      P2
      00000090H   SFRSYM    DATA     BYTE      P1
      00000080H   SFRSYM    DATA     BYTE      P0

      ---         MODULE    ---      ---       FUNCTION
      000000D0H   SFRSYM    DATA     BYTE      PSW
      0000009DH   SFRSYM    DATA     BYTE      IRCBAND
      00000097H   SFRSYM    DATA     BYTE      AUXR2
      000000EFH   SFRSYM    DATA     BYTE      AUXINTIF
      000000FDH   SFRSYM    DATA     BYTE      S4CON
      000000ACH   SFRSYM    DATA     BYTE      S3CON
      0000009AH   SFRSYM    DATA     BYTE      S2CON
      000000B7H   SFRSYM    DATA     BYTE      IPH
      000000CDH   SFRSYM    DATA     BYTE      SPSTAT
      000000DDH   SFRSYM    DATA     BYTE      T4T3M
      000000C1H   SFRSYM    DATA     BYTE      WDT_CONTR
      000000DFH   SFRSYM    DATA     BYTE      IP3
      000000F4H   SFRSYM    DATA     BYTE      USBCON
      000000B5H   SFRSYM    DATA     BYTE      IP2
      000000FFH   SFRSYM    DATA     BYTE      RSTCFG
      000000C7H   SFRSYM    DATA     BYTE      IAP_CONTR
      000000F9H   SFRSYM    DATA     BYTE      LINICR
      0000008EH   SFRSYM    DATA     BYTE      AUXR
      000000AFH   SFRSYM    DATA     BYTE      IE2
      00000088H   SFRSYM    DATA     BYTE      TCON
      00000089H   SFRSYM    DATA     BYTE      TMOD
      00000098H   SFRSYM    DATA     BYTE      SCON
      000000F1H   SFRSYM    DATA     BYTE      CANICR
      00000087H   SFRSYM    DATA     BYTE      PCON
      000000BCH   SFRSYM    DATA     BYTE      ADC_CONTR
      000000E7H   SFRSYM    DATA     BYTE      CMPCR2
      000000E6H   SFRSYM    DATA     BYTE      CMPCR1
      000000DEH   SFRSYM    DATA     BYTE      ADCCFG
      000000B8H   SFRSYM    DATA     BYTE      IP
L251 LINKER/LOCATER V4.66.93.0                                                        03/08/2024  18:54:18  PAGE 67


      0000008FH   SFRSYM    DATA     BYTE      INTCLKO
      000000EEH   SFRSYM    DATA     BYTE      IP3H
      000000B6H   SFRSYM    DATA     BYTE      IP2H
      000000A8H   SFRSYM    DATA     BYTE      IE
      000000BBH   SFRSYM    DATA     BYTE      P_SW3
      000000BAH   SFRSYM    DATA     BYTE      P_SW2
      000000A2H   SFRSYM    DATA     BYTE      P_SW1
      000000CEH   SFRSYM    DATA     BYTE      SPCTL
      000000F8H   SFRSYM    DATA     BYTE      P7
      000000E8H   SFRSYM    DATA     BYTE      P6
      000000C8H   SFRSYM    DATA     BYTE      P5
      000000C0H   SFRSYM    DATA     BYTE      P4
      000000B0H   SFRSYM    DATA     BYTE      P3
      000000A0H   SFRSYM    DATA     BYTE      P2
      00000090H   SFRSYM    DATA     BYTE      P1
      00000080H   SFRSYM    DATA     BYTE      P0
      00FF56EBH   SYMBOL    HCONST   ---       ?tpl?0001
      DR8         REGSYM    ---      DWORD     num1
      DR28        REGSYM    ---      DWORD     num2
      REG=7       REGSYM    ---      ---       str
      R10         REGSYM    ---      BYTE      sign
      DR4         REGSYM    ---      LONG      temp
      REG=6       REGSYM    ---      ---       str
      DR28        REGSYM    ---      LONG      number
      R15         REGSYM    ---      BYTE      dat_bit
      DR20        REGSYM    ---      LONG      number_temp
      REG=2       REGSYM    ---      ---       str
      DR4         REGSYM    ---      DWORD     temp
      REG=6       REGSYM    ---      ---       str
      DR28        REGSYM    ---      DWORD     number
      R15         REGSYM    ---      BYTE      dat_bit
      REG=7       REGSYM    ---      ---       str
      R15         REGSYM    ---      BYTE      sign
      DR24        REGSYM    ---      FLOAT     temp
      DR20        REGSYM    ---      FLOAT     temp_point
      DR16        REGSYM    ---      FLOAT     point_bit
      REG=7       REGSYM    ---      ---       str
      DR24        REGSYM    ---      FLOAT     number
      R15         REGSYM    ---      BYTE      point_bit
      WR20        REGSYM    ---      INT       data_int
      WR22        REGSYM    ---      INT       data_float
      R14         REGSYM    ---      BYTE      dat_bit
      REG=7       REGSYM    ---      ---       str
      R15         REGSYM    ---      BYTE      sign
      DR24        REGSYM    ---      FLOAT     temp
      DR20        REGSYM    ---      FLOAT     temp_point
      DR16        REGSYM    ---      FLOAT     point_bit
      REG=7       REGSYM    ---      ---       str
      DR24        REGSYM    ---      FLOAT     number
      R15         REGSYM    ---      BYTE      point_bit
      WR20        REGSYM    ---      INT       data_int
      WR22        REGSYM    ---      INT       data_float
      R14         REGSYM    ---      BYTE      dat_bit
      REG=3       REGSYM    ---      ---       str
      DR0         REGSYM    ---      DWORD     str_len
      DR4         REGSYM    ---      DWORD     result_data
      R10         REGSYM    ---      BYTE      temp
      R9          REGSYM    ---      BYTE      flag
      REG=7       REGSYM    ---      ---       str
      DR24        REGSYM    ---      DWORD     number
      R10         REGSYM    ---      BYTE      dat_bit
      DR24        REGSYM    ---      DWORD     dat
      REG=7       REGSYM    ---      ---       p
      R10         REGSYM    ---      BYTE      neg_type
      DR20        REGSYM    ---      LONG      neg_dat
L251 LINKER/LOCATER V4.66.93.0                                                        03/08/2024  18:54:18  PAGE 68


      DR24        REGSYM    ---      DWORD     pos_dat
      R14         REGSYM    ---      BYTE      temp_data
      R15         REGSYM    ---      BYTE      valid_num
      REG=7       REGSYM    ---      ---       d_buff
      DR24        REGSYM    ---      DWORD     len
      DR4         REGSYM    ---      DWORD     i
      R3          REGSYM    ---      CHAR      temp_data
      REG=3       REGSYM    ---      ---       buff

      ---         MODULE    ---      ---       ICM20602
      00000412H   PUBLIC    EDATA    INT       icm20602_acc_x
      00000414H   PUBLIC    EDATA    INT       icm20602_acc_y
      00000416H   PUBLIC    EDATA    INT       icm20602_acc_z
      00000418H   PUBLIC    EDATA    INT       icm20602_gyro_x
      0000041AH   PUBLIC    EDATA    INT       icm20602_gyro_y
      0000041CH   PUBLIC    EDATA    INT       icm20602_gyro_z
      000000D0H   SFRSYM    DATA     BYTE      PSW
      0000009DH   SFRSYM    DATA     BYTE      IRCBAND
      00000097H   SFRSYM    DATA     BYTE      AUXR2
      000000EFH   SFRSYM    DATA     BYTE      AUXINTIF
      000000FDH   SFRSYM    DATA     BYTE      S4CON
      000000ACH   SFRSYM    DATA     BYTE      S3CON
      0000009AH   SFRSYM    DATA     BYTE      S2CON
      000000B7H   SFRSYM    DATA     BYTE      IPH
      000000CDH   SFRSYM    DATA     BYTE      SPSTAT
      000000DDH   SFRSYM    DATA     BYTE      T4T3M
      000000C1H   SFRSYM    DATA     BYTE      WDT_CONTR
      000000DFH   SFRSYM    DATA     BYTE      IP3
      000000F4H   SFRSYM    DATA     BYTE      USBCON
      000000B5H   SFRSYM    DATA     BYTE      IP2
      000000FFH   SFRSYM    DATA     BYTE      RSTCFG
      000000C7H   SFRSYM    DATA     BYTE      IAP_CONTR
      000000F9H   SFRSYM    DATA     BYTE      LINICR
      0000008EH   SFRSYM    DATA     BYTE      AUXR
      000000AFH   SFRSYM    DATA     BYTE      IE2
      000000C0H.3 SFRSYM    DATA     BIT       P43
      000000C0H.2 SFRSYM    DATA     BIT       P42
      00000088H   SFRSYM    DATA     BYTE      TCON
      00000089H   SFRSYM    DATA     BYTE      TMOD
      000000C0H.1 SFRSYM    DATA     BIT       P41
      00000098H   SFRSYM    DATA     BYTE      SCON
      000000C0H.0 SFRSYM    DATA     BIT       P40
      000000F1H   SFRSYM    DATA     BYTE      CANICR
      00000087H   SFRSYM    DATA     BYTE      PCON
      000000BCH   SFRSYM    DATA     BYTE      ADC_CONTR
      000000E7H   SFRSYM    DATA     BYTE      CMPCR2
      000000E6H   SFRSYM    DATA     BYTE      CMPCR1
      000000DEH   SFRSYM    DATA     BYTE      ADCCFG
      000000B8H   SFRSYM    DATA     BYTE      IP
      0000008FH   SFRSYM    DATA     BYTE      INTCLKO
      000000EEH   SFRSYM    DATA     BYTE      IP3H
      000000B6H   SFRSYM    DATA     BYTE      IP2H
      000000A8H   SFRSYM    DATA     BYTE      IE
      000000BBH   SFRSYM    DATA     BYTE      P_SW3
      000000BAH   SFRSYM    DATA     BYTE      P_SW2
      000000A2H   SFRSYM    DATA     BYTE      P_SW1
      000000CEH   SFRSYM    DATA     BYTE      SPCTL
      000000F8H   SFRSYM    DATA     BYTE      P7
      000000E8H   SFRSYM    DATA     BYTE      P6
      000000C8H   SFRSYM    DATA     BYTE      P5
      000000C0H   SFRSYM    DATA     BYTE      P4
      000000B0H   SFRSYM    DATA     BYTE      P3
      000000A0H   SFRSYM    DATA     BYTE      P2
      00000090H   SFRSYM    DATA     BYTE      P1
      00000080H   SFRSYM    DATA     BYTE      P0
L251 LINKER/LOCATER V4.66.93.0                                                        03/08/2024  18:54:18  PAGE 69


      00FF53FFH   SYMBOL    CODE     ---       icm20602_read_register
      00FF5182H   SYMBOL    CODE     ---       icm20602_simspi_wr_byte
      00FF4F5EH   SYMBOL    CODE     ---       icm20602_simspi_r_reg_bytes
      00FF53A7H   SYMBOL    CODE     ---       icm20602_simspi_r_reg_byte

      00FF5182H   BLOCK     CODE     ---       LVL=0
      R6          REGSYM    ---      BYTE      byte
      00FF5184H   BLOCK     CODE     NEAR LAB  LVL=1
      R7          REGSYM    ---      BYTE      i
      ---         BLOCKEND  ---      ---       LVL=1
      00FF5182H   LINE      CODE     ---       #265
      00FF5184H   LINE      CODE     ---       #266
      00FF5184H   LINE      CODE     ---       #269
      00FF5186H   LINE      CODE     ---       #271
      00FF518BH   LINE      CODE     ---       #272
      00FF518DH   LINE      CODE     ---       #273
      00FF518FH   LINE      CODE     ---       #274
      00FF5191H   LINE      CODE     ---       #276
      00FF5193H   LINE      CODE     ---       #277
      00FF5195H   LINE      CODE     ---       #278
      00FF519BH   LINE      CODE     ---       #279
      00FF51A2H   LINE      CODE     ---       #280
      00FF51A4H   LINE      CODE     ---       #281
      ---         BLOCKEND  ---      ---       LVL=0
      R7          REGSYM    ---      BYTE      cmd
      R15         REGSYM    ---      BYTE      val

      00FF53A7H   BLOCK     CODE     ---       LVL=0
      R7          REGSYM    ---      BYTE      cmd
      REG=3       REGSYM    ---      ---       val
      00FF53A7H   LINE      CODE     ---       #327
      00FF53ADH   LINE      CODE     ---       #330
      00FF53B0H   LINE      CODE     ---       #331
      00FF53B5H   LINE      CODE     ---       #332
      00FF53BCH   LINE      CODE     ---       #334
      ---         BLOCKEND  ---      ---       LVL=0

      00FF4F5EH   BLOCK     CODE     ---       LVL=0
      R7          REGSYM    ---      BYTE      cmd
      REG=3       REGSYM    ---      ---       val
      0000045EH   SYMBOL    EDATA    DWORD     num
      00FF4F68H   BLOCK     CODE     NEAR LAB  LVL=1
      ---         BLOCKEND  ---      ---       LVL=1
      00FF4F5EH   LINE      CODE     ---       #344
      00FF4F68H   LINE      CODE     ---       #345
      00FF4F68H   LINE      CODE     ---       #346
      00FF4F68H   LINE      CODE     ---       #347
      00FF4F6BH   LINE      CODE     ---       #348
      00FF4F70H   LINE      CODE     ---       #350
      00FF4F72H   LINE      CODE     ---       #352
      00FF4F7BH   LINE      CODE     ---       #353
      00FF4F8BH   LINE      CODE     ---       #354
      ---         BLOCKEND  ---      ---       LVL=0
      R11         REGSYM    ---      BYTE      reg
      R7          REGSYM    ---      BYTE      dat

      00FF53FFH   BLOCK     CODE     ---       LVL=0
      R7          REGSYM    ---      BYTE      reg
      00000474H   SYMBOL    EDATA    BYTE      dat
      00FF53FFH   LINE      CODE     ---       #394
      00FF53FFH   LINE      CODE     ---       #395
      00FF53FFH   LINE      CODE     ---       #397
      00FF5401H   LINE      CODE     ---       #398
      00FF540AH   LINE      CODE     ---       #399
      00FF540CH   LINE      CODE     ---       #400
L251 LINKER/LOCATER V4.66.93.0                                                        03/08/2024  18:54:18  PAGE 70


      00FF5410H   LINE      CODE     ---       #401
      ---         BLOCKEND  ---      ---       LVL=0
      R3          REGSYM    ---      BYTE      reg
      REG=1       REGSYM    ---      ---       dat
      DR28        REGSYM    ---      DWORD     len
      R14         REGSYM    ---      BYTE      dat
      R15         REGSYM    ---      BYTE      return_state
      WR12        REGSYM    ---      WORD      timeout_count
      WR8         REGSYM    ---      INT       acc_value
      DR4         REGSYM    ---      FLOAT     acc_data
      WR8         REGSYM    ---      INT       gyro_value
      DR4         REGSYM    ---      FLOAT     gyro_data
      R14         REGSYM    ---      BYTE      val
      R15         REGSYM    ---      BYTE      return_state
      WR12        REGSYM    ---      WORD      timeout_count

      ---         MODULE    ---      ---       IMU963RA
      000003E0H   PUBLIC    EDATA    INT       imu963ra_acc_x
      000003E2H   PUBLIC    EDATA    INT       imu963ra_acc_y
      000003E4H   PUBLIC    EDATA    INT       imu963ra_acc_z
      000003E6H   PUBLIC    EDATA    INT       imu963ra_mag_x
      000003E8H   PUBLIC    EDATA    INT       imu963ra_mag_y
      000003EAH   PUBLIC    EDATA    INT       imu963ra_mag_z
      000003ECH   PUBLIC    EDATA    INT       imu963ra_gyro_x
      000003EEH   PUBLIC    EDATA    INT       imu963ra_gyro_y
      000003F0H   PUBLIC    EDATA    INT       imu963ra_gyro_z
      000000D0H   SFRSYM    DATA     BYTE      PSW
      0000009DH   SFRSYM    DATA     BYTE      IRCBAND
      00000097H   SFRSYM    DATA     BYTE      AUXR2
      000000EFH   SFRSYM    DATA     BYTE      AUXINTIF
      000000FDH   SFRSYM    DATA     BYTE      S4CON
      000000ACH   SFRSYM    DATA     BYTE      S3CON
      0000009AH   SFRSYM    DATA     BYTE      S2CON
      000000B7H   SFRSYM    DATA     BYTE      IPH
      000000CDH   SFRSYM    DATA     BYTE      SPSTAT
      000000DDH   SFRSYM    DATA     BYTE      T4T3M
      000000C1H   SFRSYM    DATA     BYTE      WDT_CONTR
      000000DFH   SFRSYM    DATA     BYTE      IP3
      000000F4H   SFRSYM    DATA     BYTE      USBCON
      000000B5H   SFRSYM    DATA     BYTE      IP2
      000000FFH   SFRSYM    DATA     BYTE      RSTCFG
      000000C7H   SFRSYM    DATA     BYTE      IAP_CONTR
      000000F9H   SFRSYM    DATA     BYTE      LINICR
      0000008EH   SFRSYM    DATA     BYTE      AUXR
      000000AFH   SFRSYM    DATA     BYTE      IE2
      000000C0H.3 SFRSYM    DATA     BIT       P43
      000000C0H.2 SFRSYM    DATA     BIT       P42
      00000088H   SFRSYM    DATA     BYTE      TCON
      00000089H   SFRSYM    DATA     BYTE      TMOD
      000000C0H.1 SFRSYM    DATA     BIT       P41
      00000098H   SFRSYM    DATA     BYTE      SCON
      000000C0H.0 SFRSYM    DATA     BIT       P40
      000000F1H   SFRSYM    DATA     BYTE      CANICR
      00000087H   SFRSYM    DATA     BYTE      PCON
      000000BCH   SFRSYM    DATA     BYTE      ADC_CONTR
      000000E7H   SFRSYM    DATA     BYTE      CMPCR2
      000000E6H   SFRSYM    DATA     BYTE      CMPCR1
      000000DEH   SFRSYM    DATA     BYTE      ADCCFG
      000000B8H   SFRSYM    DATA     BYTE      IP
      0000008FH   SFRSYM    DATA     BYTE      INTCLKO
      000000EEH   SFRSYM    DATA     BYTE      IP3H
      000000B6H   SFRSYM    DATA     BYTE      IP2H
      000000A8H   SFRSYM    DATA     BYTE      IE
      000000BBH   SFRSYM    DATA     BYTE      P_SW3
      000000BAH   SFRSYM    DATA     BYTE      P_SW2
L251 LINKER/LOCATER V4.66.93.0                                                        03/08/2024  18:54:18  PAGE 71


      000000A2H   SFRSYM    DATA     BYTE      P_SW1
      000000CEH   SFRSYM    DATA     BYTE      SPCTL
      000000F8H   SFRSYM    DATA     BYTE      P7
      000000E8H   SFRSYM    DATA     BYTE      P6
      000000C8H   SFRSYM    DATA     BYTE      P5
      000000C0H   SFRSYM    DATA     BYTE      P4
      000000B0H   SFRSYM    DATA     BYTE      P3
      000000A0H   SFRSYM    DATA     BYTE      P2
      00000090H   SFRSYM    DATA     BYTE      P1
      00000080H   SFRSYM    DATA     BYTE      P0
      00FF51A5H   SYMBOL    CODE     ---       imu963ra_simspi_wr_byte
      00FF4BCFH   SYMBOL    CODE     ---       imu963ra_read_mag_register
      00FF5341H   SYMBOL    CODE     ---       imu963ra_read_acc_gyro_register
      00FF5325H   SYMBOL    CODE     ---       imu963ra_simspi_r_reg_byte
      00FF5546H   SYMBOL    CODE     ---       imu963ra_write_acc_gyro_register
      00FF53ECH   SYMBOL    CODE     ---       imu963ra_simspi_w_reg_byte

      00FF51A5H   BLOCK     CODE     ---       LVL=0
      R6          REGSYM    ---      BYTE      byte
      00FF51A7H   BLOCK     CODE     NEAR LAB  LVL=1
      R7          REGSYM    ---      BYTE      i
      ---         BLOCKEND  ---      ---       LVL=1
      00FF51A5H   LINE      CODE     ---       #318
      00FF51A7H   LINE      CODE     ---       #319
      00FF51A7H   LINE      CODE     ---       #322
      00FF51A9H   LINE      CODE     ---       #324
      00FF51AEH   LINE      CODE     ---       #325
      00FF51B0H   LINE      CODE     ---       #326
      00FF51B2H   LINE      CODE     ---       #327
      00FF51B4H   LINE      CODE     ---       #329
      00FF51B6H   LINE      CODE     ---       #330
      00FF51B8H   LINE      CODE     ---       #331
      00FF51BEH   LINE      CODE     ---       #332
      00FF51C5H   LINE      CODE     ---       #333
      00FF51C7H   LINE      CODE     ---       #334
      ---         BLOCKEND  ---      ---       LVL=0

      00FF53ECH   BLOCK     CODE     ---       LVL=0
      R7          REGSYM    ---      BYTE      cmd
      R15         REGSYM    ---      BYTE      val
      00FF53ECH   LINE      CODE     ---       #342
      00FF53F0H   LINE      CODE     ---       #344
      00FF53F2H   LINE      CODE     ---       #345
      00FF53F2H   LINE      CODE     ---       #346
      00FF53F5H   LINE      CODE     ---       #347
      00FF53FAH   LINE      CODE     ---       #348
      00FF53FCH   LINE      CODE     ---       #349
      ---         BLOCKEND  ---      ---       LVL=0

      00FF5325H   BLOCK     CODE     ---       LVL=0
      R7          REGSYM    ---      BYTE      cmd
      REG=3       REGSYM    ---      ---       val
      00FF5325H   LINE      CODE     ---       #379
      00FF532BH   LINE      CODE     ---       #381
      00FF532DH   LINE      CODE     ---       #382
      00FF5330H   LINE      CODE     ---       #383
      00FF5335H   LINE      CODE     ---       #384
      00FF533CH   LINE      CODE     ---       #385
      00FF533EH   LINE      CODE     ---       #386
      ---         BLOCKEND  ---      ---       LVL=0
      R7          REGSYM    ---      BYTE      cmd
      REG=3       REGSYM    ---      ---       val

      00FF5546H   BLOCK     CODE     ---       LVL=0
      R11         REGSYM    ---      BYTE      reg
L251 LINKER/LOCATER V4.66.93.0                                                        03/08/2024  18:54:18  PAGE 72


      R7          REGSYM    ---      BYTE      dat
      00FF5546H   LINE      CODE     ---       #416
      00FF5546H   LINE      CODE     ---       #418
      00FF5548H   LINE      CODE     ---       #419
      00FF554BH   LINE      CODE     ---       #421
      00FF554DH   LINE      CODE     ---       #422
      ---         BLOCKEND  ---      ---       LVL=0

      00FF5341H   BLOCK     CODE     ---       LVL=0
      R10         REGSYM    ---      BYTE      reg
      00FF5343H   BLOCK     CODE     NEAR LAB  LVL=1
      00000475H   SYMBOL    EDATA    BYTE      dat
      ---         BLOCKEND  ---      ---       LVL=1
      00FF5341H   LINE      CODE     ---       #431
      00FF5343H   LINE      CODE     ---       #432
      00FF5343H   LINE      CODE     ---       #433
      00FF5348H   LINE      CODE     ---       #434
      00FF534AH   LINE      CODE     ---       #435
      00FF5355H   LINE      CODE     ---       #436
      00FF5357H   LINE      CODE     ---       #437
      00FF535BH   LINE      CODE     ---       #438
      ---         BLOCKEND  ---      ---       LVL=0
      R3          REGSYM    ---      BYTE      reg
      REG=1       REGSYM    ---      ---       dat
      DR28        REGSYM    ---      DWORD     len
      R15         REGSYM    ---      BYTE      addr
      R13         REGSYM    ---      BYTE      reg
      R14         REGSYM    ---      BYTE      dat
      R12         REGSYM    ---      BYTE      return_state

      00FF4BCFH   BLOCK     CODE     ---       LVL=0
      R10         REGSYM    ---      BYTE      addr
      R15         REGSYM    ---      BYTE      reg
      00FF4BD7H   BLOCK     CODE     NEAR LAB  LVL=1
      WR12        REGSYM    ---      WORD      timeout_count
      ---         BLOCKEND  ---      ---       LVL=1
      00FF4BCFH   LINE      CODE     ---       #500
      00FF4BD7H   LINE      CODE     ---       #501
      00FF4BD7H   LINE      CODE     ---       #502
      00FF4BD9H   LINE      CODE     ---       #504
      00FF4BDBH   LINE      CODE     ---       #505
      00FF4BE5H   LINE      CODE     ---       #506
      00FF4BECH   LINE      CODE     ---       #507
      00FF4BF4H   LINE      CODE     ---       #508
      00FF4BFCH   LINE      CODE     ---       #511
      00FF4BFEH   LINE      CODE     ---       #513
      00FF4C08H   LINE      CODE     ---       #515
      00FF4C08H   LINE      CODE     ---       #516
      00FF4C08H   LINE      CODE     ---       #517
      00FF4C0FH   LINE      CODE     ---       #518
      00FF4C17H   LINE      CODE     ---       #520
      00FF4C1CH   LINE      CODE     ---       #521
      ---         BLOCKEND  ---      ---       LVL=0
      R10         REGSYM    ---      BYTE      addr
      R15         REGSYM    ---      BYTE      reg
      R15         REGSYM    ---      BYTE      return_state
      R14         REGSYM    ---      BYTE      dat
      WR12        REGSYM    ---      WORD      timeout_count
      R15         REGSYM    ---      BYTE      return_state
      R14         REGSYM    ---      BYTE      dat
      WR12        REGSYM    ---      WORD      timeout_count
      R11         REGSYM    ---      BYTE      temp_status
      WR8         REGSYM    ---      INT       mag_value
      DR4         REGSYM    ---      FLOAT     mag_dat
      R15         REGSYM    ---      BYTE      return_state
L251 LINKER/LOCATER V4.66.93.0                                                        03/08/2024  18:54:18  PAGE 73



      ---         MODULE    ---      ---       IPS114_SPI
      00FF52CAH   PUBLIC    CODE     ---       ips114_writedata_16bit
      00FF5016H   PUBLIC    CODE     ---       ips114_writeDatai_16bit_simspi
      00FF50BFH   PUBLIC    CODE     ---       ips114_writeIndex_simspi
      00FF54EEH   PUBLIC    CODE     ---       ips114_writeIndex
      000000D0H   SFRSYM    DATA     BYTE      PSW
      0000009DH   SFRSYM    DATA     BYTE      IRCBAND
      00000097H   SFRSYM    DATA     BYTE      AUXR2
      000000EFH   SFRSYM    DATA     BYTE      AUXINTIF
      000000FDH   SFRSYM    DATA     BYTE      S4CON
      000000ACH   SFRSYM    DATA     BYTE      S3CON
      0000009AH   SFRSYM    DATA     BYTE      S2CON
      000000B7H   SFRSYM    DATA     BYTE      IPH
      000000CDH   SFRSYM    DATA     BYTE      SPSTAT
      000000DDH   SFRSYM    DATA     BYTE      T4T3M
      000000C1H   SFRSYM    DATA     BYTE      WDT_CONTR
      000000DFH   SFRSYM    DATA     BYTE      IP3
      000000F4H   SFRSYM    DATA     BYTE      USBCON
      000000B5H   SFRSYM    DATA     BYTE      IP2
      000000FFH   SFRSYM    DATA     BYTE      RSTCFG
      000000C7H   SFRSYM    DATA     BYTE      IAP_CONTR
      000000F9H   SFRSYM    DATA     BYTE      LINICR
      0000008EH   SFRSYM    DATA     BYTE      AUXR
      000000AFH   SFRSYM    DATA     BYTE      IE2
      000000A0H.7 SFRSYM    DATA     BIT       P27
      000000A0H.5 SFRSYM    DATA     BIT       P25
      00000088H   SFRSYM    DATA     BYTE      TCON
      00000089H   SFRSYM    DATA     BYTE      TMOD
      000000A0H.3 SFRSYM    DATA     BIT       P23
      00000098H   SFRSYM    DATA     BYTE      SCON
      000000A0H.2 SFRSYM    DATA     BIT       P22
      000000A0H.1 SFRSYM    DATA     BIT       P21
      000000A0H.0 SFRSYM    DATA     BIT       P20
      000000F1H   SFRSYM    DATA     BYTE      CANICR
      00000087H   SFRSYM    DATA     BYTE      PCON
      000000BCH   SFRSYM    DATA     BYTE      ADC_CONTR
      000000E7H   SFRSYM    DATA     BYTE      CMPCR2
      000000E6H   SFRSYM    DATA     BYTE      CMPCR1
      000000DEH   SFRSYM    DATA     BYTE      ADCCFG
      000000B8H   SFRSYM    DATA     BYTE      IP
      0000008FH   SFRSYM    DATA     BYTE      INTCLKO
      000000EEH   SFRSYM    DATA     BYTE      IP3H
      000000B6H   SFRSYM    DATA     BYTE      IP2H
      000000A8H   SFRSYM    DATA     BYTE      IE
      000000BBH   SFRSYM    DATA     BYTE      P_SW3
      000000BAH   SFRSYM    DATA     BYTE      P_SW2
      000000A2H   SFRSYM    DATA     BYTE      P_SW1
      000000CEH   SFRSYM    DATA     BYTE      SPCTL
      000000F8H   SFRSYM    DATA     BYTE      P7
      000000E8H   SFRSYM    DATA     BYTE      P6
      000000C8H   SFRSYM    DATA     BYTE      P5
      000000C0H   SFRSYM    DATA     BYTE      P4
      000000B0H   SFRSYM    DATA     BYTE      P3
      000000A0H   SFRSYM    DATA     BYTE      P2
      00000090H   SFRSYM    DATA     BYTE      P1
      00000080H   SFRSYM    DATA     BYTE      P0

      00FF50BFH   BLOCK     CODE     ---       LVL=0
      R7          REGSYM    ---      BYTE      dat
      00FF50C1H   BLOCK     CODE     NEAR LAB  LVL=1
      R6          REGSYM    ---      BYTE      i
      ---         BLOCKEND  ---      ---       LVL=1
      00FF50BFH   LINE      CODE     ---       #42
      00FF50C1H   LINE      CODE     ---       #43
L251 LINKER/LOCATER V4.66.93.0                                                        03/08/2024  18:54:18  PAGE 74


      00FF50C1H   LINE      CODE     ---       #44
      00FF50C4H   LINE      CODE     ---       #45
      00FF50C6H   LINE      CODE     ---       #46
      00FF50C8H   LINE      CODE     ---       #48
      00FF50CAH   LINE      CODE     ---       #50
      00FF50CCH   LINE      CODE     ---       #52
      00FF50D5H   LINE      CODE     ---       #53
      00FF50D7H   LINE      CODE     ---       #54
      00FF50D9H   LINE      CODE     ---       #56
      00FF50DBH   LINE      CODE     ---       #57
      00FF50DDH   LINE      CODE     ---       #58
      00FF50E5H   LINE      CODE     ---       #59
      00FF50E7H   LINE      CODE     ---       #60
      ---         BLOCKEND  ---      ---       LVL=0
      R7          REGSYM    ---      BYTE      dat
      R6          REGSYM    ---      BYTE      i

      00FF5016H   BLOCK     CODE     ---       LVL=0
      WR4         REGSYM    ---      WORD      dat
      00FF5018H   BLOCK     CODE     NEAR LAB  LVL=1
      R10         REGSYM    ---      BYTE      i
      ---         BLOCKEND  ---      ---       LVL=1
      00FF5016H   LINE      CODE     ---       #94
      00FF5018H   LINE      CODE     ---       #95
      00FF5018H   LINE      CODE     ---       #96
      00FF501BH   LINE      CODE     ---       #97
      00FF501DH   LINE      CODE     ---       #98
      00FF501FH   LINE      CODE     ---       #99
      00FF5021H   LINE      CODE     ---       #100
      00FF5023H   LINE      CODE     ---       #102
      00FF502FH   LINE      CODE     ---       #103
      00FF5031H   LINE      CODE     ---       #104
      00FF5033H   LINE      CODE     ---       #106
      00FF5035H   LINE      CODE     ---       #107
      00FF5037H   LINE      CODE     ---       #108
      00FF503FH   LINE      CODE     ---       #109
      00FF5041H   LINE      CODE     ---       #110
      ---         BLOCKEND  ---      ---       LVL=0
      WR12        REGSYM    ---      WORD      x2
      WR14        REGSYM    ---      WORD      y2
      WR14        REGSYM    ---      WORD      color
      R13         REGSYM    ---      BYTE      i
      WR2         REGSYM    ---      WORD      x
      WR0         REGSYM    ---      WORD      y
      WR14        REGSYM    ---      WORD      color
      WR12        REGSYM    ---      WORD      x
      WR14        REGSYM    ---      WORD      y
      REG=3       REGSYM    ---      ---       dat
      WR12        REGSYM    ---      WORD      x
      WR14        REGSYM    ---      WORD      y
      WR12        REGSYM    ---      WORD      x
      WR14        REGSYM    ---      WORD      y
      R10         REGSYM    ---      BYTE      dat
      WR12        REGSYM    ---      WORD      x
      WR14        REGSYM    ---      WORD      y
      WR12        REGSYM    ---      WORD      x
      WR14        REGSYM    ---      WORD      y
      WR2         REGSYM    ---      WORD      dat
      WR12        REGSYM    ---      WORD      y
      R15         REGSYM    ---      BYTE      num
      R14         REGSYM    ---      BYTE      length
      DR12        REGSYM    ---      FLOAT     dat
      R7          REGSYM    ---      CHAR      point

      00FF54EEH   BLOCK     CODE     ---       LVL=0
L251 LINKER/LOCATER V4.66.93.0                                                        03/08/2024  18:54:18  PAGE 75


      R7          REGSYM    ---      BYTE      dat
      00FF54EEH   LINE      CODE     ---       #561
      00FF54EEH   LINE      CODE     ---       #563
      00FF54F0H   LINE      CODE     ---       #564
      00FF54F2H   LINE      CODE     ---       #566
      00FF54F5H   LINE      CODE     ---       #567
      00FF54F7H   LINE      CODE     ---       #568
      ---         BLOCKEND  ---      ---       LVL=0
      R7          REGSYM    ---      BYTE      dat

      00FF52CAH   BLOCK     CODE     ---       LVL=0
      WR4         REGSYM    ---      WORD      dat
      00FF52CCH   BLOCK     CODE     NEAR LAB  LVL=1
      0000046DH   SYMBOL    EDATA    ---       dat1
      ---         BLOCKEND  ---      ---       LVL=1
      00FF52CAH   LINE      CODE     ---       #591
      00FF52CCH   LINE      CODE     ---       #592
      00FF52CCH   LINE      CODE     ---       #594
      00FF52D0H   LINE      CODE     ---       #595
      00FF52D4H   LINE      CODE     ---       #596
      00FF52D6H   LINE      CODE     ---       #597
      00FF52D8H   LINE      CODE     ---       #598
      00FF52DFH   LINE      CODE     ---       #599
      00FF52E6H   LINE      CODE     ---       #600
      00FF52E8H   LINE      CODE     ---       #601
      ---         BLOCKEND  ---      ---       LVL=0
      WR12        REGSYM    ---      WORD      x2
      WR14        REGSYM    ---      WORD      y2
      WR14        REGSYM    ---      WORD      color
      R13         REGSYM    ---      BYTE      i
      WR2         REGSYM    ---      WORD      x
      WR0         REGSYM    ---      WORD      y
      WR14        REGSYM    ---      WORD      color
      WR12        REGSYM    ---      WORD      x
      WR14        REGSYM    ---      WORD      y
      REG=3       REGSYM    ---      ---       dat
      WR12        REGSYM    ---      WORD      x
      WR14        REGSYM    ---      WORD      y
      WR12        REGSYM    ---      WORD      x
      WR14        REGSYM    ---      WORD      y
      R10         REGSYM    ---      BYTE      dat
      WR12        REGSYM    ---      WORD      x
      WR14        REGSYM    ---      WORD      y
      WR12        REGSYM    ---      WORD      x
      WR14        REGSYM    ---      WORD      y
      WR2         REGSYM    ---      WORD      dat
      WR12        REGSYM    ---      WORD      y
      R15         REGSYM    ---      BYTE      num
      R14         REGSYM    ---      BYTE      length
      DR12        REGSYM    ---      FLOAT     dat
      R7          REGSYM    ---      CHAR      point

      ---         MODULE    ---      ---       IPS200_SPI
      00FF53BFH   PUBLIC    CODE     ---       ips200_write_16bit_data_spi
      00FF0016H   PUBLIC    CODE     ---       ips200_write_8bit_data_spi
      000000D0H   SFRSYM    DATA     BYTE      PSW
      0000009DH   SFRSYM    DATA     BYTE      IRCBAND
      00000097H   SFRSYM    DATA     BYTE      AUXR2
      000000EFH   SFRSYM    DATA     BYTE      AUXINTIF
      000000FDH   SFRSYM    DATA     BYTE      S4CON
      000000ACH   SFRSYM    DATA     BYTE      S3CON
      0000009AH   SFRSYM    DATA     BYTE      S2CON
      000000B7H   SFRSYM    DATA     BYTE      IPH
      000000CDH   SFRSYM    DATA     BYTE      SPSTAT
      000000DDH   SFRSYM    DATA     BYTE      T4T3M
L251 LINKER/LOCATER V4.66.93.0                                                        03/08/2024  18:54:18  PAGE 76


      000000C1H   SFRSYM    DATA     BYTE      WDT_CONTR
      000000DFH   SFRSYM    DATA     BYTE      IP3
      000000F4H   SFRSYM    DATA     BYTE      USBCON
      000000B5H   SFRSYM    DATA     BYTE      IP2
      000000FFH   SFRSYM    DATA     BYTE      RSTCFG
      000000C7H   SFRSYM    DATA     BYTE      IAP_CONTR
      000000F9H   SFRSYM    DATA     BYTE      LINICR
      0000008EH   SFRSYM    DATA     BYTE      AUXR
      000000AFH   SFRSYM    DATA     BYTE      IE2
      000000A0H.7 SFRSYM    DATA     BIT       P27
      00000088H   SFRSYM    DATA     BYTE      TCON
      00000089H   SFRSYM    DATA     BYTE      TMOD
      00000098H   SFRSYM    DATA     BYTE      SCON
      000000A0H.2 SFRSYM    DATA     BIT       P22
      000000A0H.1 SFRSYM    DATA     BIT       P21
      000000A0H.0 SFRSYM    DATA     BIT       P20
      000000F1H   SFRSYM    DATA     BYTE      CANICR
      00000087H   SFRSYM    DATA     BYTE      PCON
      000000BCH   SFRSYM    DATA     BYTE      ADC_CONTR
      000000E7H   SFRSYM    DATA     BYTE      CMPCR2
      000000E6H   SFRSYM    DATA     BYTE      CMPCR1
      000000DEH   SFRSYM    DATA     BYTE      ADCCFG
      000000B8H   SFRSYM    DATA     BYTE      IP
      0000008FH   SFRSYM    DATA     BYTE      INTCLKO
      000000EEH   SFRSYM    DATA     BYTE      IP3H
      000000B6H   SFRSYM    DATA     BYTE      IP2H
      000000A8H   SFRSYM    DATA     BYTE      IE
      000000BBH   SFRSYM    DATA     BYTE      P_SW3
      000000BAH   SFRSYM    DATA     BYTE      P_SW2
      000000A2H   SFRSYM    DATA     BYTE      P_SW1
      000000CEH   SFRSYM    DATA     BYTE      SPCTL
      000000F8H   SFRSYM    DATA     BYTE      P7
      000000E8H   SFRSYM    DATA     BYTE      P6
      000000C8H   SFRSYM    DATA     BYTE      P5
      000000C0H   SFRSYM    DATA     BYTE      P4
      000000B0H   SFRSYM    DATA     BYTE      P3
      000000A0H   SFRSYM    DATA     BYTE      P2
      00000090H   SFRSYM    DATA     BYTE      P1
      00000080H   SFRSYM    DATA     BYTE      P0
      00FF5454H   SYMBOL    CODE     ---       ips200_write_command
      00FF54F8H   SYMBOL    CODE     ---       ips200_write_16bit_data
      00000404H   SYMBOL    EDATA    WORD      ips200_pencolor
      00000406H   SYMBOL    EDATA    WORD      ips200_bgcolor
      00000408H   SYMBOL    EDATA    INT       ips200_display_font
      0000040AH   SYMBOL    EDATA    INT       ips200_display_dir
      0000040CH   SYMBOL    EDATA    WORD      ips200_x_max
      0000040EH   SYMBOL    EDATA    INT       ips200_display_type
      00000410H   SYMBOL    EDATA    WORD      ips200_y_max

      00FF0016H   BLOCK     CODE     ---       LVL=0
      R7          REGSYM    ---      BYTE      dat
      00FF0016H   LINE      CODE     ---       #49
      00FF0016H   LINE      CODE     ---       #51
      ---         BLOCKEND  ---      ---       LVL=0

      00FF53BFH   BLOCK     CODE     ---       LVL=0
      WR4         REGSYM    ---      WORD      dat
      00FF53C1H   BLOCK     CODE     NEAR LAB  LVL=1
      0000046FH   SYMBOL    EDATA    ---       dat1
      ---         BLOCKEND  ---      ---       LVL=1
      00FF53BFH   LINE      CODE     ---       #62
      00FF53C1H   LINE      CODE     ---       #63
      00FF53C1H   LINE      CODE     ---       #65
      00FF53C5H   LINE      CODE     ---       #66
      00FF53C9H   LINE      CODE     ---       #68
L251 LINKER/LOCATER V4.66.93.0                                                        03/08/2024  18:54:18  PAGE 77


      00FF53D0H   LINE      CODE     ---       #69
      ---         BLOCKEND  ---      ---       LVL=0

      00FF5454H   BLOCK     CODE     ---       LVL=0
      R7          REGSYM    ---      BYTE      command
      00FF5454H   LINE      CODE     ---       #80
      00FF5454H   LINE      CODE     ---       #83
      00FF5456H   LINE      CODE     ---       #84
      00FF5458H   LINE      CODE     ---       #85
      00FF545AH   LINE      CODE     ---       #86
      00FF545DH   LINE      CODE     ---       #87
      00FF545FH   LINE      CODE     ---       #88
      00FF5461H   LINE      CODE     ---       #89
      00FF5463H   LINE      CODE     ---       #91
      ---         BLOCKEND  ---      ---       LVL=0
      R7          REGSYM    ---      BYTE      dat

      00FF54F8H   BLOCK     CODE     ---       LVL=0
      WR6         REGSYM    ---      WORD      dat
      00FF54F8H   LINE      CODE     ---       #115
      00FF54F8H   LINE      CODE     ---       #117
      00FF54FAH   LINE      CODE     ---       #118
      00FF54FCH   LINE      CODE     ---       #119
      00FF54FFH   LINE      CODE     ---       #120
      00FF5501H   LINE      CODE     ---       #121
      ---         BLOCKEND  ---      ---       LVL=0
      WR12        REGSYM    ---      WORD      x2
      WR14        REGSYM    ---      WORD      y2
      WR14        REGSYM    ---      WORD      i
      WR12        REGSYM    ---      WORD      j
      WR14        REGSYM    ---      WORD      color
      WR12        REGSYM    ---      WORD      i
      WR6         REGSYM    ---      INT       dir
      WR6         REGSYM    ---      INT       font
      WR6         REGSYM    ---      WORD      pen
      WR4         REGSYM    ---      WORD      bgcolor
      WR2         REGSYM    ---      WORD      x
      WR0         REGSYM    ---      WORD      y
      WR14        REGSYM    ---      WORD      color
      WR12        REGSYM    ---      WORD      x_start
      WR14        REGSYM    ---      WORD      y_start
      WR12        REGSYM    ---      WORD      x
      WR14        REGSYM    ---      WORD      y
      REG=3       REGSYM    ---      ---       dat
      WR12        REGSYM    ---      WORD      y
      DR0         REGSYM    ---      LONG      dat
      R15         REGSYM    ---      BYTE      num
      WR12        REGSYM    ---      WORD      y
      DR0         REGSYM    ---      DWORD     dat
      R15         REGSYM    ---      BYTE      num
      WR12        REGSYM    ---      WORD      y
      DR0         REGSYM    ---      FLOAT     dat
      R15         REGSYM    ---      BYTE      num
      REG=3       REGSYM    ---      ---       wave
      WR0         REGSYM    ---      WORD      x
      WR10        REGSYM    ---      WORD      y
      REG=3       REGSYM    ---      ---       chinese_buffer

      ---         MODULE    ---      ---       MPU6050
      0000041EH   PUBLIC    EDATA    INT       mpu6050_acc_x
      00000420H   PUBLIC    EDATA    INT       mpu6050_acc_y
      00000422H   PUBLIC    EDATA    INT       mpu6050_acc_z
      00000424H   PUBLIC    EDATA    INT       mpu6050_gyro_x
      00000426H   PUBLIC    EDATA    INT       mpu6050_gyro_y
      00000428H   PUBLIC    EDATA    INT       mpu6050_gyro_z
L251 LINKER/LOCATER V4.66.93.0                                                        03/08/2024  18:54:18  PAGE 78


      000000D0H   SFRSYM    DATA     BYTE      PSW
      0000009DH   SFRSYM    DATA     BYTE      IRCBAND
      00000097H   SFRSYM    DATA     BYTE      AUXR2
      000000EFH   SFRSYM    DATA     BYTE      AUXINTIF
      000000FDH   SFRSYM    DATA     BYTE      S4CON
      000000ACH   SFRSYM    DATA     BYTE      S3CON
      0000009AH   SFRSYM    DATA     BYTE      S2CON
      000000B7H   SFRSYM    DATA     BYTE      IPH
      000000CDH   SFRSYM    DATA     BYTE      SPSTAT
      000000DDH   SFRSYM    DATA     BYTE      T4T3M
      000000C1H   SFRSYM    DATA     BYTE      WDT_CONTR
      000000DFH   SFRSYM    DATA     BYTE      IP3
      000000F4H   SFRSYM    DATA     BYTE      USBCON
      000000B5H   SFRSYM    DATA     BYTE      IP2
      000000FFH   SFRSYM    DATA     BYTE      RSTCFG
      000000C7H   SFRSYM    DATA     BYTE      IAP_CONTR
      000000F9H   SFRSYM    DATA     BYTE      LINICR
      0000008EH   SFRSYM    DATA     BYTE      AUXR
      000000AFH   SFRSYM    DATA     BYTE      IE2
      00000088H   SFRSYM    DATA     BYTE      TCON
      00000089H   SFRSYM    DATA     BYTE      TMOD
      000000C0H.1 SFRSYM    DATA     BIT       P41
      00000098H   SFRSYM    DATA     BYTE      SCON
      000000C0H.0 SFRSYM    DATA     BIT       P40
      000000F1H   SFRSYM    DATA     BYTE      CANICR
      00000087H   SFRSYM    DATA     BYTE      PCON
      000000BCH   SFRSYM    DATA     BYTE      ADC_CONTR
      000000E7H   SFRSYM    DATA     BYTE      CMPCR2
      000000E6H   SFRSYM    DATA     BYTE      CMPCR1
      000000DEH   SFRSYM    DATA     BYTE      ADCCFG
      000000B8H   SFRSYM    DATA     BYTE      IP
      0000008FH   SFRSYM    DATA     BYTE      INTCLKO
      000000EEH   SFRSYM    DATA     BYTE      IP3H
      000000B6H   SFRSYM    DATA     BYTE      IP2H
      000000A8H   SFRSYM    DATA     BYTE      IE
      000000BBH   SFRSYM    DATA     BYTE      P_SW3
      000000BAH   SFRSYM    DATA     BYTE      P_SW2
      000000A2H   SFRSYM    DATA     BYTE      P_SW1
      000000CEH   SFRSYM    DATA     BYTE      SPCTL
      000000F8H   SFRSYM    DATA     BYTE      P7
      000000E8H   SFRSYM    DATA     BYTE      P6
      000000C8H   SFRSYM    DATA     BYTE      P5
      000000C0H   SFRSYM    DATA     BYTE      P4
      000000B0H   SFRSYM    DATA     BYTE      P3
      000000A0H   SFRSYM    DATA     BYTE      P2
      00000090H   SFRSYM    DATA     BYTE      P1
      00000080H   SFRSYM    DATA     BYTE      P0
      00FF5473H   SYMBOL    CODE     ---       mpu6050_simiic_start
      00FF5433H   SYMBOL    CODE     ---       mpu6050_simiic_stop
      00FF526CH   SYMBOL    CODE     ---       mpu6050_simiic_sendack
      00FF54CFH   SYMBOL    CODE     ---       mpu6050_simiic_delay

      00FF54CFH   BLOCK     CODE     ---       LVL=0
      WR6         REGSYM    ---      WORD      j
      00FF54CFH   LINE      CODE     ---       #38
      00FF54CFH   LINE      CODE     ---       #39
      00FF54CFH   LINE      CODE     ---       #40
      00FF54D1H   LINE      CODE     ---       #41
      00FF54D9H   LINE      CODE     ---       #42
      ---         BLOCKEND  ---      ---       LVL=0

      00FF5473H   BLOCK     CODE     ---       LVL=0
      00FF5473H   LINE      CODE     ---       #45
      00FF5473H   LINE      CODE     ---       #47
      00FF5475H   LINE      CODE     ---       #48
L251 LINKER/LOCATER V4.66.93.0                                                        03/08/2024  18:54:18  PAGE 79


      00FF5477H   LINE      CODE     ---       #49
      00FF547AH   LINE      CODE     ---       #50
      00FF547CH   LINE      CODE     ---       #51
      00FF547FH   LINE      CODE     ---       #52
      00FF5481H   LINE      CODE     ---       #53
      ---         BLOCKEND  ---      ---       LVL=0

      00FF5433H   BLOCK     CODE     ---       LVL=0
      00FF5433H   LINE      CODE     ---       #56
      00FF5433H   LINE      CODE     ---       #58
      00FF5435H   LINE      CODE     ---       #59
      00FF5437H   LINE      CODE     ---       #60
      00FF543AH   LINE      CODE     ---       #61
      00FF543CH   LINE      CODE     ---       #62
      00FF543FH   LINE      CODE     ---       #63
      00FF5441H   LINE      CODE     ---       #64
      ---         BLOCKEND  ---      ---       LVL=0

      00FF526CH   BLOCK     CODE     ---       LVL=0
      R15         REGSYM    ---      BYTE      ack_dat
      00FF526CH   LINE      CODE     ---       #69
      00FF5270H   LINE      CODE     ---       #71
      00FF5272H   LINE      CODE     ---       #72
      00FF5275H   LINE      CODE     ---       #73
      00FF527DH   LINE      CODE     ---       #74
      00FF527FH   LINE      CODE     ---       #76
      00FF5281H   LINE      CODE     ---       #77
      00FF5284H   LINE      CODE     ---       #78
      00FF5286H   LINE      CODE     ---       #79
      00FF5289H   LINE      CODE     ---       #80
      ---         BLOCKEND  ---      ---       LVL=0
      R15         REGSYM    ---      BYTE      c
      R14         REGSYM    ---      BYTE      i
      R15         REGSYM    ---      BYTE      ack_x
      R13         REGSYM    ---      BYTE      i
      R14         REGSYM    ---      BYTE      c
      R13         REGSYM    ---      BYTE      dev_add
      R14         REGSYM    ---      BYTE      reg
      R15         REGSYM    ---      BYTE      dat
      R15         REGSYM    ---      BYTE      dev_add
      R14         REGSYM    ---      BYTE      reg
      R15         REGSYM    ---      BYTE      dat
      REG=3       REGSYM    ---      ---       dat_add

      ---         MODULE    ---      ---       OLED
      00FF51C8H   PUBLIC    CODE     ---       oled_set_pos
      00FF50E8H   PUBLIC    CODE     ---       oled_wrcmd
      00FF5111H   PUBLIC    CODE     ---       oled_wrdat
      00FF51EBH   PUBLIC    CODE     ---       oled_set_pos_spi
      00FF5502H   PUBLIC    CODE     ---       oled_wrcmd_spi
      00FF550CH   PUBLIC    CODE     ---       oled_wrdat_spi
      000000D0H   SFRSYM    DATA     BYTE      PSW
      0000009DH   SFRSYM    DATA     BYTE      IRCBAND
      00000097H   SFRSYM    DATA     BYTE      AUXR2
      000000EFH   SFRSYM    DATA     BYTE      AUXINTIF
      000000FDH   SFRSYM    DATA     BYTE      S4CON
      000000ACH   SFRSYM    DATA     BYTE      S3CON
      0000009AH   SFRSYM    DATA     BYTE      S2CON
      000000B7H   SFRSYM    DATA     BYTE      IPH
      000000CDH   SFRSYM    DATA     BYTE      SPSTAT
      000000DDH   SFRSYM    DATA     BYTE      T4T3M
      000000C1H   SFRSYM    DATA     BYTE      WDT_CONTR
      000000DFH   SFRSYM    DATA     BYTE      IP3
      000000F4H   SFRSYM    DATA     BYTE      USBCON
      000000B5H   SFRSYM    DATA     BYTE      IP2
L251 LINKER/LOCATER V4.66.93.0                                                        03/08/2024  18:54:18  PAGE 80


      000000FFH   SFRSYM    DATA     BYTE      RSTCFG
      000000C7H   SFRSYM    DATA     BYTE      IAP_CONTR
      000000F9H   SFRSYM    DATA     BYTE      LINICR
      0000008EH   SFRSYM    DATA     BYTE      AUXR
      000000AFH   SFRSYM    DATA     BYTE      IE2
      000000A0H.5 SFRSYM    DATA     BIT       P25
      00000088H   SFRSYM    DATA     BYTE      TCON
      00000089H   SFRSYM    DATA     BYTE      TMOD
      000000A0H.3 SFRSYM    DATA     BIT       P23
      00000098H   SFRSYM    DATA     BYTE      SCON
      000000A0H.2 SFRSYM    DATA     BIT       P22
      000000A0H.1 SFRSYM    DATA     BIT       P21
      000000A0H.0 SFRSYM    DATA     BIT       P20
      000000F1H   SFRSYM    DATA     BYTE      CANICR
      00000087H   SFRSYM    DATA     BYTE      PCON
      000000BCH   SFRSYM    DATA     BYTE      ADC_CONTR
      000000E7H   SFRSYM    DATA     BYTE      CMPCR2
      000000E6H   SFRSYM    DATA     BYTE      CMPCR1
      000000DEH   SFRSYM    DATA     BYTE      ADCCFG
      000000B8H   SFRSYM    DATA     BYTE      IP
      0000008FH   SFRSYM    DATA     BYTE      INTCLKO
      000000EEH   SFRSYM    DATA     BYTE      IP3H
      000000B6H   SFRSYM    DATA     BYTE      IP2H
      000000A8H   SFRSYM    DATA     BYTE      IE
      000000BBH   SFRSYM    DATA     BYTE      P_SW3
      000000BAH   SFRSYM    DATA     BYTE      P_SW2
      000000A2H   SFRSYM    DATA     BYTE      P_SW1
      000000CEH   SFRSYM    DATA     BYTE      SPCTL
      000000F8H   SFRSYM    DATA     BYTE      P7
      000000E8H   SFRSYM    DATA     BYTE      P6
      000000C8H   SFRSYM    DATA     BYTE      P5
      000000C0H   SFRSYM    DATA     BYTE      P4
      000000B0H   SFRSYM    DATA     BYTE      P3
      000000A0H   SFRSYM    DATA     BYTE      P2
      00000090H   SFRSYM    DATA     BYTE      P1
      00000080H   SFRSYM    DATA     BYTE      P0

      00FF5111H   BLOCK     CODE     ---       LVL=0
      R7          REGSYM    ---      BYTE      dat
      00FF5113H   BLOCK     CODE     NEAR LAB  LVL=1
      R6          REGSYM    ---      BYTE      i
      ---         BLOCKEND  ---      ---       LVL=1
      00FF5111H   LINE      CODE     ---       #35
      00FF5113H   LINE      CODE     ---       #36
      00FF5113H   LINE      CODE     ---       #37
      00FF5116H   LINE      CODE     ---       #39
      00FF5118H   LINE      CODE     ---       #40
      00FF511AH   LINE      CODE     ---       #41
      00FF511CH   LINE      CODE     ---       #42
      00FF511EH   LINE      CODE     ---       #44
      00FF5127H   LINE      CODE     ---       #45
      00FF5129H   LINE      CODE     ---       #46
      00FF512BH   LINE      CODE     ---       #48
      00FF512DH   LINE      CODE     ---       #49
      00FF512FH   LINE      CODE     ---       #50
      00FF5137H   LINE      CODE     ---       #51
      00FF5139H   LINE      CODE     ---       #52
      ---         BLOCKEND  ---      ---       LVL=0

      00FF50E8H   BLOCK     CODE     ---       LVL=0
      R7          REGSYM    ---      BYTE      cmd
      00FF50EAH   BLOCK     CODE     NEAR LAB  LVL=1
      R6          REGSYM    ---      BYTE      i
      ---         BLOCKEND  ---      ---       LVL=1
      00FF50E8H   LINE      CODE     ---       #86
L251 LINKER/LOCATER V4.66.93.0                                                        03/08/2024  18:54:18  PAGE 81


      00FF50EAH   LINE      CODE     ---       #87
      00FF50EAH   LINE      CODE     ---       #88
      00FF50EDH   LINE      CODE     ---       #90
      00FF50EFH   LINE      CODE     ---       #91
      00FF50F1H   LINE      CODE     ---       #92
      00FF50F3H   LINE      CODE     ---       #94
      00FF50F5H   LINE      CODE     ---       #96
      00FF50FEH   LINE      CODE     ---       #97
      00FF5100H   LINE      CODE     ---       #98
      00FF5102H   LINE      CODE     ---       #100
      00FF5104H   LINE      CODE     ---       #101
      00FF5106H   LINE      CODE     ---       #102
      00FF510EH   LINE      CODE     ---       #103
      00FF5110H   LINE      CODE     ---       #104
      ---         BLOCKEND  ---      ---       LVL=0
      WR8         REGSYM    ---      WORD      hex
      REG=7       REGSYM    ---      ---       Print
      R5          REGSYM    ---      BYTE      hexcheck
      R10         REGSYM    ---      BYTE      TEMP

      00FF51C8H   BLOCK     CODE     ---       LVL=0
      R15         REGSYM    ---      BYTE      x
      R10         REGSYM    ---      BYTE      y
      00FF51C8H   LINE      CODE     ---       #193
      00FF51CCH   LINE      CODE     ---       #195
      00FF51D3H   LINE      CODE     ---       #196
      00FF51E1H   LINE      CODE     ---       #197
      00FF51E8H   LINE      CODE     ---       #198
      ---         BLOCKEND  ---      ---       LVL=0
      R15         REGSYM    ---      BYTE      bmp_data
      R14         REGSYM    ---      BYTE      y
      R13         REGSYM    ---      BYTE      x
      R15         REGSYM    ---      BYTE      x
      R14         REGSYM    ---      BYTE      y
      R13         REGSYM    ---      BYTE      data1
      R15         REGSYM    ---      BYTE      x
      R14         REGSYM    ---      BYTE      y
      REG=3       REGSYM    ---      ---       ch
      REG=3       REGSYM    ---      ---       ch
      R14         REGSYM    ---      BYTE      x
      R15         REGSYM    ---      BYTE      y
      WR4         REGSYM    ---      WORD      num
      R15         REGSYM    ---      BYTE      x
      R14         REGSYM    ---      BYTE      y
      WR12        REGSYM    ---      INT       num
      WR12        REGSYM    ---      WORD      y
      R15         REGSYM    ---      BYTE      num
      R14         REGSYM    ---      BYTE      length
      DR12        REGSYM    ---      FLOAT     dat
      R7          REGSYM    ---      CHAR      point
      WR4         REGSYM    ---      WORD      high
      REG=3       REGSYM    ---      ---       p
      REG=3       REGSYM    ---      ---       p

      00FF550CH   BLOCK     CODE     ---       LVL=0
      R7          REGSYM    ---      BYTE      dat
      00FF550CH   LINE      CODE     ---       #522
      00FF550CH   LINE      CODE     ---       #524
      00FF550EH   LINE      CODE     ---       #525
      00FF5510H   LINE      CODE     ---       #526
      00FF5513H   LINE      CODE     ---       #527
      00FF5515H   LINE      CODE     ---       #530
      ---         BLOCKEND  ---      ---       LVL=0

      00FF5502H   BLOCK     CODE     ---       LVL=0
L251 LINKER/LOCATER V4.66.93.0                                                        03/08/2024  18:54:18  PAGE 82


      R7          REGSYM    ---      BYTE      cmd
      00FF5502H   LINE      CODE     ---       #564
      00FF5502H   LINE      CODE     ---       #566
      00FF5504H   LINE      CODE     ---       #567
      00FF5506H   LINE      CODE     ---       #568
      00FF5509H   LINE      CODE     ---       #569
      00FF550BH   LINE      CODE     ---       #570
      ---         BLOCKEND  ---      ---       LVL=0
      WR8         REGSYM    ---      WORD      hex
      REG=7       REGSYM    ---      ---       Print
      R5          REGSYM    ---      BYTE      hexcheck
      R10         REGSYM    ---      BYTE      TEMP

      00FF51EBH   BLOCK     CODE     ---       LVL=0
      R15         REGSYM    ---      BYTE      x
      R10         REGSYM    ---      BYTE      y
      00FF51EBH   LINE      CODE     ---       #660
      00FF51EFH   LINE      CODE     ---       #664
      00FF51F6H   LINE      CODE     ---       #665
      00FF5202H   LINE      CODE     ---       #666
      00FF5209H   LINE      CODE     ---       #667
      ---         BLOCKEND  ---      ---       LVL=0
      R15         REGSYM    ---      BYTE      bmp_data
      R14         REGSYM    ---      BYTE      y
      R13         REGSYM    ---      BYTE      x
      R15         REGSYM    ---      BYTE      x
      R14         REGSYM    ---      BYTE      y
      R13         REGSYM    ---      BYTE      data1
      R15         REGSYM    ---      BYTE      x
      R14         REGSYM    ---      BYTE      y
      REG=3       REGSYM    ---      ---       ch
      REG=3       REGSYM    ---      ---       ch
      R14         REGSYM    ---      BYTE      x
      R15         REGSYM    ---      BYTE      y
      WR4         REGSYM    ---      WORD      num
      R15         REGSYM    ---      BYTE      x
      R14         REGSYM    ---      BYTE      y
      WR12        REGSYM    ---      INT       num
      WR12        REGSYM    ---      WORD      y
      R15         REGSYM    ---      BYTE      num
      R14         REGSYM    ---      BYTE      length
      DR12        REGSYM    ---      FLOAT     dat
      R7          REGSYM    ---      CHAR      point
      WR4         REGSYM    ---      WORD      high
      REG=3       REGSYM    ---      ---       p
      REG=3       REGSYM    ---      ---       p

      ---         MODULE    ---      ---       TSL1401
      00000008H   PUBLIC    EDATA    BYTE      tsl1401_finish_flag
      00000009H   PUBLIC    EDATA    ---       ccd_data_ch1
      00000109H   PUBLIC    EDATA    ---       ccd_data_ch2
      000000D0H   SFRSYM    DATA     BYTE      PSW
      0000009DH   SFRSYM    DATA     BYTE      IRCBAND
      00000097H   SFRSYM    DATA     BYTE      AUXR2
      000000EFH   SFRSYM    DATA     BYTE      AUXINTIF
      000000FDH   SFRSYM    DATA     BYTE      S4CON
      000000ACH   SFRSYM    DATA     BYTE      S3CON
      0000009AH   SFRSYM    DATA     BYTE      S2CON
      000000B7H   SFRSYM    DATA     BYTE      IPH
      000000CDH   SFRSYM    DATA     BYTE      SPSTAT
      000000DDH   SFRSYM    DATA     BYTE      T4T3M
      000000C1H   SFRSYM    DATA     BYTE      WDT_CONTR
      000000DFH   SFRSYM    DATA     BYTE      IP3
      000000F4H   SFRSYM    DATA     BYTE      USBCON
      000000B5H   SFRSYM    DATA     BYTE      IP2
L251 LINKER/LOCATER V4.66.93.0                                                        03/08/2024  18:54:18  PAGE 83


      000000FFH   SFRSYM    DATA     BYTE      RSTCFG
      000000C7H   SFRSYM    DATA     BYTE      IAP_CONTR
      000000F9H   SFRSYM    DATA     BYTE      LINICR
      0000008EH   SFRSYM    DATA     BYTE      AUXR
      000000AFH   SFRSYM    DATA     BYTE      IE2
      00000080H.7 SFRSYM    DATA     BIT       P07
      00000088H   SFRSYM    DATA     BYTE      TCON
      00000089H   SFRSYM    DATA     BYTE      TMOD
      00000098H   SFRSYM    DATA     BYTE      SCON
      00000080H.2 SFRSYM    DATA     BIT       P02
      000000F1H   SFRSYM    DATA     BYTE      CANICR
      00000087H   SFRSYM    DATA     BYTE      PCON
      000000BCH   SFRSYM    DATA     BYTE      ADC_CONTR
      000000E7H   SFRSYM    DATA     BYTE      CMPCR2
      000000E6H   SFRSYM    DATA     BYTE      CMPCR1
      000000DEH   SFRSYM    DATA     BYTE      ADCCFG
      000000B8H   SFRSYM    DATA     BYTE      IP
      0000008FH   SFRSYM    DATA     BYTE      INTCLKO
      000000EEH   SFRSYM    DATA     BYTE      IP3H
      000000B6H   SFRSYM    DATA     BYTE      IP2H
      000000A8H   SFRSYM    DATA     BYTE      IE
      000000BBH   SFRSYM    DATA     BYTE      P_SW3
      000000BAH   SFRSYM    DATA     BYTE      P_SW2
      000000A2H   SFRSYM    DATA     BYTE      P_SW1
      000000CEH   SFRSYM    DATA     BYTE      SPCTL
      000000F8H   SFRSYM    DATA     BYTE      P7
      000000E8H   SFRSYM    DATA     BYTE      P6
      000000C8H   SFRSYM    DATA     BYTE      P5
      000000C0H   SFRSYM    DATA     BYTE      P4
      000000B0H   SFRSYM    DATA     BYTE      P3
      000000A0H   SFRSYM    DATA     BYTE      P2
      00000090H   SFRSYM    DATA     BYTE      P1
      00000080H   SFRSYM    DATA     BYTE      P0
      REG=3       REGSYM    ---      ---       dat
      R15         REGSYM    ---      BYTE      i

      ---         MODULE    ---      ---       VIRSCO
      0000042AH   PUBLIC    EDATA    ---       virtual_scope_data
      000000D0H   SFRSYM    DATA     BYTE      PSW
      0000009DH   SFRSYM    DATA     BYTE      IRCBAND
      00000097H   SFRSYM    DATA     BYTE      AUXR2
      000000EFH   SFRSYM    DATA     BYTE      AUXINTIF
      000000FDH   SFRSYM    DATA     BYTE      S4CON
      000000ACH   SFRSYM    DATA     BYTE      S3CON
      0000009AH   SFRSYM    DATA     BYTE      S2CON
      000000B7H   SFRSYM    DATA     BYTE      IPH
      000000CDH   SFRSYM    DATA     BYTE      SPSTAT
      000000DDH   SFRSYM    DATA     BYTE      T4T3M
      000000C1H   SFRSYM    DATA     BYTE      WDT_CONTR
      000000DFH   SFRSYM    DATA     BYTE      IP3
      000000F4H   SFRSYM    DATA     BYTE      USBCON
      000000B5H   SFRSYM    DATA     BYTE      IP2
      000000FFH   SFRSYM    DATA     BYTE      RSTCFG
      000000C7H   SFRSYM    DATA     BYTE      IAP_CONTR
      000000F9H   SFRSYM    DATA     BYTE      LINICR
      0000008EH   SFRSYM    DATA     BYTE      AUXR
      000000AFH   SFRSYM    DATA     BYTE      IE2
      00000088H   SFRSYM    DATA     BYTE      TCON
      00000089H   SFRSYM    DATA     BYTE      TMOD
      00000098H   SFRSYM    DATA     BYTE      SCON
      000000F1H   SFRSYM    DATA     BYTE      CANICR
      00000087H   SFRSYM    DATA     BYTE      PCON
      000000BCH   SFRSYM    DATA     BYTE      ADC_CONTR
      000000E7H   SFRSYM    DATA     BYTE      CMPCR2
      000000E6H   SFRSYM    DATA     BYTE      CMPCR1
L251 LINKER/LOCATER V4.66.93.0                                                        03/08/2024  18:54:18  PAGE 84


      000000DEH   SFRSYM    DATA     BYTE      ADCCFG
      000000B8H   SFRSYM    DATA     BYTE      IP
      0000008FH   SFRSYM    DATA     BYTE      INTCLKO
      000000EEH   SFRSYM    DATA     BYTE      IP3H
      000000B6H   SFRSYM    DATA     BYTE      IP2H
      000000A8H   SFRSYM    DATA     BYTE      IE
      000000BBH   SFRSYM    DATA     BYTE      P_SW3
      000000BAH   SFRSYM    DATA     BYTE      P_SW2
      000000A2H   SFRSYM    DATA     BYTE      P_SW1
      000000CEH   SFRSYM    DATA     BYTE      SPCTL
      000000F8H   SFRSYM    DATA     BYTE      P7
      000000E8H   SFRSYM    DATA     BYTE      P6
      000000C8H   SFRSYM    DATA     BYTE      P5
      000000C0H   SFRSYM    DATA     BYTE      P4
      000000B0H   SFRSYM    DATA     BYTE      P3
      000000A0H   SFRSYM    DATA     BYTE      P2
      00000090H   SFRSYM    DATA     BYTE      P1
      00000080H   SFRSYM    DATA     BYTE      P0
      REG=7       REGSYM    ---      ---       Buf
      R10         REGSYM    ---      BYTE      CRC_CNT
      WR6         REGSYM    ---      WORD      CRC_Temp
      R5          REGSYM    ---      BYTE      i
      R4          REGSYM    ---      BYTE      j
      WR0         REGSYM    ---      INT       data1
      WR30        REGSYM    ---      INT       data2
      WR8         REGSYM    ---      INT       data3
      WR10        REGSYM    ---      INT       data4
      WR6         REGSYM    ---      WORD      CRC16

      ---         MODULE    ---      ---       WIRELESS
      00FF538EH   PUBLIC    CODE     ---       wireless_uart_callback
      000000D0H   SFRSYM    DATA     BYTE      PSW
      0000009DH   SFRSYM    DATA     BYTE      IRCBAND
      00000097H   SFRSYM    DATA     BYTE      AUXR2
      000000EFH   SFRSYM    DATA     BYTE      AUXINTIF
      000000FDH   SFRSYM    DATA     BYTE      S4CON
      000000ACH   SFRSYM    DATA     BYTE      S3CON
      0000009AH   SFRSYM    DATA     BYTE      S2CON
      000000FEH   SFRSYM    DATA     BYTE      S4BUF
      000000B7H   SFRSYM    DATA     BYTE      IPH
      000000CDH   SFRSYM    DATA     BYTE      SPSTAT
      000000DDH   SFRSYM    DATA     BYTE      T4T3M
      000000C1H   SFRSYM    DATA     BYTE      WDT_CONTR
      000000DFH   SFRSYM    DATA     BYTE      IP3
      000000F4H   SFRSYM    DATA     BYTE      USBCON
      000000B5H   SFRSYM    DATA     BYTE      IP2
      000000FFH   SFRSYM    DATA     BYTE      RSTCFG
      000000C7H   SFRSYM    DATA     BYTE      IAP_CONTR
      000000F9H   SFRSYM    DATA     BYTE      LINICR
      0000008EH   SFRSYM    DATA     BYTE      AUXR
      000000AFH   SFRSYM    DATA     BYTE      IE2
      00000080H.7 SFRSYM    DATA     BIT       P07
      00000088H   SFRSYM    DATA     BYTE      TCON
      00000089H   SFRSYM    DATA     BYTE      TMOD
      00000098H   SFRSYM    DATA     BYTE      SCON
      000000F1H   SFRSYM    DATA     BYTE      CANICR
      00000087H   SFRSYM    DATA     BYTE      PCON
      000000BCH   SFRSYM    DATA     BYTE      ADC_CONTR
      000000E7H   SFRSYM    DATA     BYTE      CMPCR2
      000000E6H   SFRSYM    DATA     BYTE      CMPCR1
      000000DEH   SFRSYM    DATA     BYTE      ADCCFG
      000000B8H   SFRSYM    DATA     BYTE      IP
      0000008FH   SFRSYM    DATA     BYTE      INTCLKO
      000000EEH   SFRSYM    DATA     BYTE      IP3H
      000000B6H   SFRSYM    DATA     BYTE      IP2H
L251 LINKER/LOCATER V4.66.93.0                                                        03/08/2024  18:54:18  PAGE 85


      000000A8H   SFRSYM    DATA     BYTE      IE
      000000BBH   SFRSYM    DATA     BYTE      P_SW3
      000000BAH   SFRSYM    DATA     BYTE      P_SW2
      000000A2H   SFRSYM    DATA     BYTE      P_SW1
      000000CEH   SFRSYM    DATA     BYTE      SPCTL
      000000F8H   SFRSYM    DATA     BYTE      P7
      000000E8H   SFRSYM    DATA     BYTE      P6
      000000C8H   SFRSYM    DATA     BYTE      P5
      000000C0H   SFRSYM    DATA     BYTE      P4
      000000B0H   SFRSYM    DATA     BYTE      P3
      000000A0H   SFRSYM    DATA     BYTE      P2
      00000090H   SFRSYM    DATA     BYTE      P1
      00000080H   SFRSYM    DATA     BYTE      P0
      00000336H   SYMBOL    EDATA    BYTE      wireless_uart_data
      00000337H   SYMBOL    EDATA    ---       wireless_uart_fifo
      0000034BH   SYMBOL    EDATA    ---       wireless_uart_buffer

      00FF538EH   BLOCK     CODE     ---       LVL=0
      00FF538EH   LINE      CODE     ---       #35
      00FF538EH   LINE      CODE     ---       #38
      00FF5394H   LINE      CODE     ---       #39
      ---         BLOCKEND  ---      ---       LVL=0
      DR12        REGSYM    ---      DWORD     len
      REG=7       REGSYM    ---      ---       buff
      DR8         REGSYM    ---      DWORD     len

      ---         MODULE    ---      ---       WIRELESS_CH573
      000000D0H   SFRSYM    DATA     BYTE      PSW
      0000009DH   SFRSYM    DATA     BYTE      IRCBAND
      00000097H   SFRSYM    DATA     BYTE      AUXR2
      000000EFH   SFRSYM    DATA     BYTE      AUXINTIF
      000000FDH   SFRSYM    DATA     BYTE      S4CON
      000000ACH   SFRSYM    DATA     BYTE      S3CON
      0000009AH   SFRSYM    DATA     BYTE      S2CON
      000000FEH   SFRSYM    DATA     BYTE      S4BUF
      000000B7H   SFRSYM    DATA     BYTE      IPH
      000000CDH   SFRSYM    DATA     BYTE      SPSTAT
      000000DDH   SFRSYM    DATA     BYTE      T4T3M
      000000C1H   SFRSYM    DATA     BYTE      WDT_CONTR
      000000DFH   SFRSYM    DATA     BYTE      IP3
      000000F4H   SFRSYM    DATA     BYTE      USBCON
      000000B5H   SFRSYM    DATA     BYTE      IP2
      000000FFH   SFRSYM    DATA     BYTE      RSTCFG
      000000C7H   SFRSYM    DATA     BYTE      IAP_CONTR
      000000F9H   SFRSYM    DATA     BYTE      LINICR
      0000008EH   SFRSYM    DATA     BYTE      AUXR
      000000AFH   SFRSYM    DATA     BYTE      IE2
      00000080H.7 SFRSYM    DATA     BIT       P07
      00000088H   SFRSYM    DATA     BYTE      TCON
      00000089H   SFRSYM    DATA     BYTE      TMOD
      00000098H   SFRSYM    DATA     BYTE      SCON
      000000F1H   SFRSYM    DATA     BYTE      CANICR
      00000087H   SFRSYM    DATA     BYTE      PCON
      000000BCH   SFRSYM    DATA     BYTE      ADC_CONTR
      000000E7H   SFRSYM    DATA     BYTE      CMPCR2
      000000E6H   SFRSYM    DATA     BYTE      CMPCR1
      000000DEH   SFRSYM    DATA     BYTE      ADCCFG
      000000B8H   SFRSYM    DATA     BYTE      IP
      0000008FH   SFRSYM    DATA     BYTE      INTCLKO
      000000EEH   SFRSYM    DATA     BYTE      IP3H
      000000B6H   SFRSYM    DATA     BYTE      IP2H
      000000A8H   SFRSYM    DATA     BYTE      IE
      000000BBH   SFRSYM    DATA     BYTE      P_SW3
      000000BAH   SFRSYM    DATA     BYTE      P_SW2
      000000A2H   SFRSYM    DATA     BYTE      P_SW1
L251 LINKER/LOCATER V4.66.93.0                                                        03/08/2024  18:54:18  PAGE 86


      000000CEH   SFRSYM    DATA     BYTE      SPCTL
      000000F8H   SFRSYM    DATA     BYTE      P7
      000000E8H   SFRSYM    DATA     BYTE      P6
      000000C8H   SFRSYM    DATA     BYTE      P5
      000000C0H   SFRSYM    DATA     BYTE      P4
      000000B0H   SFRSYM    DATA     BYTE      P3
      000000A0H   SFRSYM    DATA     BYTE      P2
      00000090H   SFRSYM    DATA     BYTE      P1
      00000080H   SFRSYM    DATA     BYTE      P0
      0000038BH   SYMBOL    EDATA    ---       wireless_ch573_buffer
      000003CBH   SYMBOL    EDATA    BYTE      wireless_ch573_data
      000003CCH   SYMBOL    EDATA    ---       wireless_ch573_fifo
      REG=3       REGSYM    ---      ---       buff
      REG=7       REGSYM    ---      ---       buff
      DR8         REGSYM    ---      DWORD     len

      ---         MODULE    ---      ---       assistant
      00000209H   PUBLIC    EDATA    ---       assistant_parameter
      000002A9H   PUBLIC    EDATA    ---       assistant_oscilloscope_data
      000000D0H   SFRSYM    DATA     BYTE      PSW
      0000009DH   SFRSYM    DATA     BYTE      IRCBAND
      00000097H   SFRSYM    DATA     BYTE      AUXR2
      000000EFH   SFRSYM    DATA     BYTE      AUXINTIF
      000000FDH   SFRSYM    DATA     BYTE      S4CON
      000000ACH   SFRSYM    DATA     BYTE      S3CON
      0000009AH   SFRSYM    DATA     BYTE      S2CON
      000000B7H   SFRSYM    DATA     BYTE      IPH
      000000CDH   SFRSYM    DATA     BYTE      SPSTAT
      000000DDH   SFRSYM    DATA     BYTE      T4T3M
      000000C1H   SFRSYM    DATA     BYTE      WDT_CONTR
      000000DFH   SFRSYM    DATA     BYTE      IP3
      000000F4H   SFRSYM    DATA     BYTE      USBCON
      000000B5H   SFRSYM    DATA     BYTE      IP2
      000000FFH   SFRSYM    DATA     BYTE      RSTCFG
      000000C7H   SFRSYM    DATA     BYTE      IAP_CONTR
      000000F9H   SFRSYM    DATA     BYTE      LINICR
      0000008EH   SFRSYM    DATA     BYTE      AUXR
      000000AFH   SFRSYM    DATA     BYTE      IE2
      00000088H   SFRSYM    DATA     BYTE      TCON
      00000089H   SFRSYM    DATA     BYTE      TMOD
      00000098H   SFRSYM    DATA     BYTE      SCON
      000000F1H   SFRSYM    DATA     BYTE      CANICR
      00000087H   SFRSYM    DATA     BYTE      PCON
      000000BCH   SFRSYM    DATA     BYTE      ADC_CONTR
      000000E7H   SFRSYM    DATA     BYTE      CMPCR2
      000000E6H   SFRSYM    DATA     BYTE      CMPCR1
      000000DEH   SFRSYM    DATA     BYTE      ADCCFG
      000000B8H   SFRSYM    DATA     BYTE      IP
      0000008FH   SFRSYM    DATA     BYTE      INTCLKO
      000000EEH   SFRSYM    DATA     BYTE      IP3H
      000000B6H   SFRSYM    DATA     BYTE      IP2H
      000000A8H   SFRSYM    DATA     BYTE      IE
      000000BBH   SFRSYM    DATA     BYTE      P_SW3
      000000BAH   SFRSYM    DATA     BYTE      P_SW2
      000000A2H   SFRSYM    DATA     BYTE      P_SW1
      000000CEH   SFRSYM    DATA     BYTE      SPCTL
      000000F8H   SFRSYM    DATA     BYTE      P7
      000000E8H   SFRSYM    DATA     BYTE      P6
      000000C8H   SFRSYM    DATA     BYTE      P5
      000000C0H   SFRSYM    DATA     BYTE      P4
      000000B0H   SFRSYM    DATA     BYTE      P3
      000000A0H   SFRSYM    DATA     BYTE      P2
      00000090H   SFRSYM    DATA     BYTE      P1
      00000080H   SFRSYM    DATA     BYTE      P0
      00000229H   SYMBOL    EDATA    ---       assistant_buffer
L251 LINKER/LOCATER V4.66.93.0                                                        03/08/2024  18:54:18  PAGE 87


      000002CDH   SYMBOL    EDATA    ---       assistant_fifo
      REG=6       REGSYM    ---      ---       buffer
      DR28        REGSYM    ---      DWORD     length
      R11         REGSYM    ---      BYTE      temp_sum
      REG=0       REGSYM    ---      ---       assistant_oscilloscope
      R15         REGSYM    ---      BYTE      packet_size
      R7          REGSYM    ---      BYTE      i
      REG=3       REGSYM    ---      ---       receive_packet

      ---         MODULE    ---      ---       inface
      00000462H   PUBLIC    EDATA    ---       assistant_receive
      00000464H   PUBLIC    EDATA    ---       assistant_transfer
      000000D0H   SFRSYM    DATA     BYTE      PSW
      0000009DH   SFRSYM    DATA     BYTE      IRCBAND
      00000097H   SFRSYM    DATA     BYTE      AUXR2
      000000EFH   SFRSYM    DATA     BYTE      AUXINTIF
      000000FDH   SFRSYM    DATA     BYTE      S4CON
      000000ACH   SFRSYM    DATA     BYTE      S3CON
      0000009AH   SFRSYM    DATA     BYTE      S2CON
      000000B7H   SFRSYM    DATA     BYTE      IPH
      000000CDH   SFRSYM    DATA     BYTE      SPSTAT
      000000DDH   SFRSYM    DATA     BYTE      T4T3M
      000000C1H   SFRSYM    DATA     BYTE      WDT_CONTR
      000000DFH   SFRSYM    DATA     BYTE      IP3
      000000F4H   SFRSYM    DATA     BYTE      USBCON
      000000B5H   SFRSYM    DATA     BYTE      IP2
      000000FFH   SFRSYM    DATA     BYTE      RSTCFG
      000000C7H   SFRSYM    DATA     BYTE      IAP_CONTR
      000000F9H   SFRSYM    DATA     BYTE      LINICR
      0000008EH   SFRSYM    DATA     BYTE      AUXR
      000000AFH   SFRSYM    DATA     BYTE      IE2
      00000088H   SFRSYM    DATA     BYTE      TCON
      00000089H   SFRSYM    DATA     BYTE      TMOD
      00000098H   SFRSYM    DATA     BYTE      SCON
      000000F1H   SFRSYM    DATA     BYTE      CANICR
      00000087H   SFRSYM    DATA     BYTE      PCON
      000000BCH   SFRSYM    DATA     BYTE      ADC_CONTR
      000000E7H   SFRSYM    DATA     BYTE      CMPCR2
      000000E6H   SFRSYM    DATA     BYTE      CMPCR1
      000000DEH   SFRSYM    DATA     BYTE      ADCCFG
      000000B8H   SFRSYM    DATA     BYTE      IP
      0000008FH   SFRSYM    DATA     BYTE      INTCLKO
      000000EEH   SFRSYM    DATA     BYTE      IP3H
      000000B6H   SFRSYM    DATA     BYTE      IP2H
      000000A8H   SFRSYM    DATA     BYTE      IE
      000000BBH   SFRSYM    DATA     BYTE      P_SW3
      000000BAH   SFRSYM    DATA     BYTE      P_SW2
      000000A2H   SFRSYM    DATA     BYTE      P_SW1
      000000CEH   SFRSYM    DATA     BYTE      SPCTL
      000000F8H   SFRSYM    DATA     BYTE      P7
      000000E8H   SFRSYM    DATA     BYTE      P6
      000000C8H   SFRSYM    DATA     BYTE      P5
      000000C0H   SFRSYM    DATA     BYTE      P4
      000000B0H   SFRSYM    DATA     BYTE      P3
      000000A0H   SFRSYM    DATA     BYTE      P2
      00000090H   SFRSYM    DATA     BYTE      P1
      00000080H   SFRSYM    DATA     BYTE      P0

      ---         MODULE    ---      ---       STC32F_FPMU
      000000E0H   SFRSYM    DATA     BYTE      ACC
      000000EDH   SFRSYM    DATA     BYTE      DMAIR
      00000083H   SFRSYM    DATA     BYTE      DPH
      00000082H   SFRSYM    DATA     BYTE      DPL
      0000001CH   SYMBOL    NUMBER   ---       DMA_FPADD
      00000030H   SYMBOL    NUMBER   ---       DMA_FPATAN
L251 LINKER/LOCATER V4.66.93.0                                                        03/08/2024  18:54:18  PAGE 88


      00000027H   SYMBOL    NUMBER   ---       DMA_FPCLD
      00000032H   SYMBOL    NUMBER   ---       DMA_FPCLEX
      00000021H   SYMBOL    NUMBER   ---       DMA_FPCMP
      0000002EH   SYMBOL    NUMBER   ---       DMA_FPCOS
      00000035H   SYMBOL    NUMBER   ---       DMA_FPCRR
      00000036H   SYMBOL    NUMBER   ---       DMA_FPCRW
      00000023H   SYMBOL    NUMBER   ---       DMA_FPCST
      0000001FH   SYMBOL    NUMBER   ---       DMA_FPDIV
      00000028H   SYMBOL    NUMBER   ---       DMA_FPILD
      00000031H   SYMBOL    NUMBER   ---       DMA_FPINIT
      00000024H   SYMBOL    NUMBER   ---       DMA_FPIST
      00000029H   SYMBOL    NUMBER   ---       DMA_FPLLD
      00000025H   SYMBOL    NUMBER   ---       DMA_FPLST
      0000001EH   SYMBOL    NUMBER   ---       DMA_FPMUL
      0000002DH   SYMBOL    NUMBER   ---       DMA_FPSIN
      00000020H   SYMBOL    NUMBER   ---       DMA_FPSQRT
      00000033H   SYMBOL    NUMBER   ---       DMA_FPSRR
      00000034H   SYMBOL    NUMBER   ---       DMA_FPSRW
      0000001DH   SYMBOL    NUMBER   ---       DMA_FPSUB
      0000002FH   SYMBOL    NUMBER   ---       DMA_FPTAN
      00000022H   SYMBOL    NUMBER   ---       DMA_FPXAM
      00000001H   SYMBOL    NUMBER   ---       FP_CONV_EN
      00000001H   SYMBOL    NUMBER   ---       FP_REGS_EN
      00000001H   SYMBOL    NUMBER   ---       FP_TRIG_EN

      ---         MODULE    ---      ---       SEEKFREE_CONFIG
      00FF00A6H   PUBLIC    CODE     ---       dl1b_default_configuration
      00FF012DH   PUBLIC    CODE     ---       imu660ra_config_file

      ---         MODULE    ---      ---       PRINTF
      00FF374DH   PUBLIC    CODE     NEAR LAB  PRINTF

      ---         MODULE    ---      ---       ?C?PRNFMT
      00FF37A6H   PUBLIC    CODE     ---       ?C?PRNFMT

      ---         MODULE    ---      ---       ?C?FPCONVERT
      00FF3BC3H   PUBLIC    CODE     ---       ?C?FPCONVERT
      00FF3C7BH   PUBLIC    CODE     ---       ?C?FPROUND

      ---         MODULE    ---      ---       ?C?FTNPWR
      00FF3CEEH   PUBLIC    CODE     ---       ?C?FTNPWR

      ---         MODULE    ---      ---       ?C_START
      00FF0000H   PUBLIC    CODE     ---       ?C?STARTUP
      00FF0000H   PUBLIC    CODE     ---       ?C_STARTUP

      ---         MODULE    ---      ---       ?C?INITEDATA
      00FF4D9CH   PUBLIC    CODE     ---       ?C?INITEDATA

      ---         MODULE    ---      ---       ?C?SIDIV
      00FF3D25H   PUBLIC    CODE     ---       ?C?SIDIV

      ---         MODULE    ---      ---       ?C?LMUL
      00FF3D57H   PUBLIC    CODE     ---       ?C?LMUL

      ---         MODULE    ---      ---       ?C?LIMUL
      00FF3D68H   PUBLIC    CODE     ---       ?C?LIMUL

      ---         MODULE    ---      ---       ?C?ULDIV
      00FF3D73H   PUBLIC    CODE     NEAR LAB  ?C?ULDIV
      00FF3D71H   PUBLIC    CODE     NEAR LAB  ?C?ULIDIV

      ---         MODULE    ---      ---       ?C?SLDIV
      00FF3DC4H   PUBLIC    CODE     NEAR LAB  ?C?SLDIV

L251 LINKER/LOCATER V4.66.93.0                                                        03/08/2024  18:54:18  PAGE 89


      ---         MODULE    ---      ---       ?C?BMOVENP
      00FF3DFAH   PUBLIC    CODE     ---       ?C?BMOVENP
      00FF3DF8H   PUBLIC    CODE     ---       ?C?BMOVENP8

      ---         MODULE    ---      ---       STRLEN

      ---         MODULE    ---      ---       memcpy
      00FF513AH   PUBLIC    CODE     ---       memcpy?_

      ---         MODULE    ---      ---       memset

      ---         MODULE    ---      ---       ?C?INITEDATA_END
      00FF55E8H   PUBLIC    HCONST   WORD      ?C?INITEDATA_END

Program Size: data=8.0 edata+hdata=1390 xdata=0 const=448 code=21807
L251 RUN COMPLETE.  0 WARNING(S),  0 ERROR(S)
